---
triple:          'arm64-apple-darwin'
binary-path:     '/Users/runner/work/BqLog/BqLog/artifacts/dynamic_lib/ios/Debug/BqLog.framework/BqLog'
relocations:
  - { offsetInCU: 0x26, offset: 0x26, size: 0x8, addend: 0x0, symName: __ZN2bq10memory_map19is_platform_supportEv, symObjAddr: 0x0, symBinAddr: 0x4000, symSize: 0xC }
  - { offsetInCU: 0xFAE, offset: 0xFAE, size: 0x8, addend: 0x0, symName: __ZN2bqL24get_memory_map_size_unitEv, symObjAddr: 0x7C, symBinAddr: 0x407C, symSize: 0x1C }
  - { offsetInCU: 0x1193, offset: 0x1193, size: 0x8, addend: 0x0, symName: __ZN2bq10memory_map26get_memory_map_alignedmentEv, symObjAddr: 0xC, symBinAddr: 0x400C, symSize: 0x70 }
  - { offsetInCU: 0x11B4, offset: 0x11B4, size: 0x8, addend: 0x0, symName: __ZZN2bq10memory_map26get_memory_map_alignedmentEvE22__memory_map_size_unit, symObjAddr: 0x6E68, symBinAddr: 0x688D0, symSize: 0x0 }
  - { offsetInCU: 0x191C, offset: 0x191C, size: 0x8, addend: 0x0, symName: __ZN2bq10memory_map19is_platform_supportEv, symObjAddr: 0x0, symBinAddr: 0x4000, symSize: 0xC }
  - { offsetInCU: 0x194A, offset: 0x194A, size: 0x8, addend: 0x0, symName: __ZN2bq10memory_map17create_memory_mapERKNS_11file_handleEmm, symObjAddr: 0x98, symBinAddr: 0x4098, symSize: 0x2D4 }
  - { offsetInCU: 0x1A11, offset: 0x1A11, size: 0x8, addend: 0x0, symName: __ZN2bq17memory_map_handleC1Ev, symObjAddr: 0x36C, symBinAddr: 0x436C, symSize: 0x2C }
  - { offsetInCU: 0x1A3B, offset: 0x1A3B, size: 0x8, addend: 0x0, symName: __ZN2bq10memory_map19get_real_map_offsetEm, symObjAddr: 0x398, symBinAddr: 0x4398, symSize: 0x50 }
  - { offsetInCU: 0x1A79, offset: 0x1A79, size: 0x8, addend: 0x0, symName: __ZN2bq10memory_map17get_real_map_sizeEmm, symObjAddr: 0x3E8, symBinAddr: 0x43E8, symSize: 0x90 }
  - { offsetInCU: 0x1AC5, offset: 0x1AC5, size: 0x8, addend: 0x0, symName: __ZN2bq10memory_map31get_min_size_of_memory_map_fileEmm, symObjAddr: 0x478, symBinAddr: 0x4478, symSize: 0x44 }
  - { offsetInCU: 0x1AF5, offset: 0x1AF5, size: 0x8, addend: 0x0, symName: __ZNK2bq11file_handle13abs_file_pathEv, symObjAddr: 0x4BC, symBinAddr: 0x44BC, symSize: 0x18 }
  - { offsetInCU: 0x1B19, offset: 0x1B19, size: 0x8, addend: 0x0, symName: __ZNK2bq11string_baseIcE5c_strEv, symObjAddr: 0x4D4, symBinAddr: 0x44D4, symSize: 0x70 }
  - { offsetInCU: 0x1B40, offset: 0x1B40, size: 0x8, addend: 0x0, symName: __ZN2bq17memory_map_handleD1Ev, symObjAddr: 0x544, symBinAddr: 0x4544, symSize: 0x2C }
  - { offsetInCU: 0x1B6A, offset: 0x1B6A, size: 0x8, addend: 0x0, symName: __ZNK2bq17memory_map_handle15has_been_mappedEv, symObjAddr: 0x634, symBinAddr: 0x4570, symSize: 0x24 }
  - { offsetInCU: 0x1B8E, offset: 0x1B8E, size: 0x8, addend: 0x0, symName: __ZN2bq10memory_map18release_memory_mapERNS_17memory_map_handleE, symObjAddr: 0x658, symBinAddr: 0x4594, symSize: 0xB8 }
  - { offsetInCU: 0x1BB2, offset: 0x1BB2, size: 0x8, addend: 0x0, symName: __ZN2bq17memory_map_handleC2Ev, symObjAddr: 0x710, symBinAddr: 0x464C, symSize: 0x60 }
  - { offsetInCU: 0x1BDC, offset: 0x1BDC, size: 0x8, addend: 0x0, symName: __ZN2bq11file_handleC1Ev, symObjAddr: 0x770, symBinAddr: 0x46AC, symSize: 0x2C }
  - { offsetInCU: 0x1C04, offset: 0x1C04, size: 0x8, addend: 0x0, symName: __ZN2bq11file_handleC2Ev, symObjAddr: 0x79C, symBinAddr: 0x46D8, symSize: 0x38 }
  - { offsetInCU: 0x1C2C, offset: 0x1C2C, size: 0x8, addend: 0x0, symName: __ZN2bq11string_baseIcEC1Ev, symObjAddr: 0x7D4, symBinAddr: 0x4710, symSize: 0x2C }
  - { offsetInCU: 0x1C56, offset: 0x1C56, size: 0x8, addend: 0x0, symName: __ZN2bq11file_handle5clearEv, symObjAddr: 0x800, symBinAddr: 0x473C, symSize: 0x38 }
  - { offsetInCU: 0x1C7A, offset: 0x1C7A, size: 0x8, addend: 0x0, symName: __ZN2bq11string_baseIcEC2Ev, symObjAddr: 0x838, symBinAddr: 0x4774, symSize: 0x2C }
  - { offsetInCU: 0x1CA4, offset: 0x1CA4, size: 0x8, addend: 0x0, symName: __ZN2bq5arrayIcLm1EEC2Ev, symObjAddr: 0x864, symBinAddr: 0x47A0, symSize: 0x20 }
  - { offsetInCU: 0x1CCE, offset: 0x1CCE, size: 0x8, addend: 0x0, symName: __ZN2bq5arrayIcLm1EE5resetIcEENS_9enable_ifIXsr2bq6is_podIT_EE5valueEvE4typeEv, symObjAddr: 0x884, symBinAddr: 0x47C0, symSize: 0x5C }
  - { offsetInCU: 0x1CFE, offset: 0x1CFE, size: 0x8, addend: 0x0, symName: __ZN2bq17memory_map_handleD2Ev, symObjAddr: 0x8E0, symBinAddr: 0x481C, symSize: 0x30 }
  - { offsetInCU: 0x1D28, offset: 0x1D28, size: 0x8, addend: 0x0, symName: __ZNK2bq5arrayIcLm1EE4sizeEv, symObjAddr: 0x910, symBinAddr: 0x484C, symSize: 0x18 }
  - { offsetInCU: 0x1D4F, offset: 0x1D4F, size: 0x8, addend: 0x0, symName: __ZNK2bq11string_baseIcE9empty_strEv, symObjAddr: 0x928, symBinAddr: 0x4864, symSize: 0x18 }
  - { offsetInCU: 0x1D73, offset: 0x1D73, size: 0x8, addend: 0x0, symName: __ZNK2bq5arrayIcLm1EE5beginEv, symObjAddr: 0x940, symBinAddr: 0x487C, symSize: 0x34 }
  - { offsetInCU: 0x1D9A, offset: 0x1D9A, size: 0x8, addend: 0x0, symName: __ZNK2bq14array_iteratorIKcNS_5arrayIcLm1EEEEptEv, symObjAddr: 0x974, symBinAddr: 0x48B0, symSize: 0x18 }
  - { offsetInCU: 0x1DC5, offset: 0x1DC5, size: 0x8, addend: 0x0, symName: __ZN2bq14array_iteratorIKcNS_5arrayIcLm1EEEEC1IcEEPT_PKS3_, symObjAddr: 0x98C, symBinAddr: 0x48C8, symSize: 0x3C }
  - { offsetInCU: 0x1E14, offset: 0x1E14, size: 0x8, addend: 0x0, symName: __ZN2bq14array_iteratorIKcNS_5arrayIcLm1EEEEC2IcEEPT_PKS3_, symObjAddr: 0x9C8, symBinAddr: 0x4904, symSize: 0x70 }
  - { offsetInCU: 0x4A, offset: 0x1ED5, size: 0x8, addend: 0x0, symName: __ZN2bq8platformL8base_dirE, symObjAddr: 0xF698, symBinAddr: 0x688E0, symSize: 0x0 }
  - { offsetInCU: 0x57, offset: 0x1EE2, size: 0x8, addend: 0x0, symName: __ZN2bq8platform25high_performance_epoch_msEv, symObjAddr: 0x0, symBinAddr: 0x4974, symSize: 0x54 }
  - { offsetInCU: 0x91, offset: 0x1F1C, size: 0x8, addend: 0x0, symName: __ZN2bq8platform12get_base_dirEb, symObjAddr: 0xAC, symBinAddr: 0x49F4, symSize: 0x108 }
  - { offsetInCU: 0xD1, offset: 0x1F5C, size: 0x8, addend: 0x0, symName: __ZN2bq8platform9ios_printEPKc, symObjAddr: 0x3D4, symBinAddr: 0x4C1C, symSize: 0x7C }
  - { offsetInCU: 0xF9, offset: 0x1F84, size: 0x8, addend: 0x0, symName: __ZN2bq8platform15get_stack_traceEjRPKcRj, symObjAddr: 0x4A8, symBinAddr: 0x4CF0, symSize: 0x3A8 }
  - { offsetInCU: 0x19F, offset: 0x202A, size: 0x8, addend: 0x0, symName: __ZN2bq8platform21get_stack_trace_utf16EjRPKDsRj, symObjAddr: 0xCD0, symBinAddr: 0x5500, symSize: 0x180 }
  - { offsetInCU: 0x198E, offset: 0x3819, size: 0x8, addend: 0x0, symName: __ZN2bq13___string_lenIcEEmPKT_, symObjAddr: 0x147C, symBinAddr: 0x5C04, symSize: 0x4C }
  - { offsetInCU: 0x1A23, offset: 0x38AE, size: 0x8, addend: 0x0, symName: __ZN2bq7forwardIcEEOT_RNS_16remove_referenceIS1_E4typeE, symObjAddr: 0x1900, symBinAddr: 0x6088, symSize: 0x14 }
  - { offsetInCU: 0x1A58, offset: 0x38E3, size: 0x8, addend: 0x0, symName: __ZN2bqgeIccNS_5arrayIcLm1EEES2_EEbRKNS_14array_iteratorIT_T1_EERKNS3_IT0_T2_EE, symObjAddr: 0x1914, symBinAddr: 0x609C, symSize: 0xA0 }
  - { offsetInCU: 0x1AB6, offset: 0x3941, size: 0x8, addend: 0x0, symName: __ZN2bqleIccNS_5arrayIcLm1EEES2_EEbRKNS_14array_iteratorIT_T1_EERKNS3_IT0_T2_EE, symObjAddr: 0x19B4, symBinAddr: 0x613C, symSize: 0xA0 }
  - { offsetInCU: 0x1B14, offset: 0x399F, size: 0x8, addend: 0x0, symName: __ZN2bqmiIccNS_5arrayIcLm1EEES2_EENS_14array_iteratorIT_T1_E9diff_typeERKS6_RKNS3_IT0_T2_EE, symObjAddr: 0x1A54, symBinAddr: 0x61DC, symSize: 0x98 }
  - { offsetInCU: 0x1B72, offset: 0x39FD, size: 0x8, addend: 0x0, symName: __ZN2bq19_inner_forward_moveIcEENS_9enable_ifIXaasr2bq31is_trivially_copy_constructibleIT_EE5valuesr2bq31is_trivially_move_constructibleIS2_EE5valueEvE4typeEPS2_S5_m, symObjAddr: 0x1D58, symBinAddr: 0x64E0, symSize: 0x38 }
  - { offsetInCU: 0x1BC7, offset: 0x3A52, size: 0x8, addend: 0x0, symName: __ZN2bq9max_valueImEET_RKS1_S3_, symObjAddr: 0x1E5C, symBinAddr: 0x65E4, symSize: 0x58 }
  - { offsetInCU: 0x1C0A, offset: 0x3A95, size: 0x8, addend: 0x0, symName: __ZN2bq18roundup_pow_of_twoImEET_S1_, symObjAddr: 0x1EB4, symBinAddr: 0x663C, symSize: 0x84 }
  - { offsetInCU: 0x1C4E, offset: 0x3AD9, size: 0x8, addend: 0x0, symName: __ZN2bq15_inner_mem_copyIcEENS_9enable_ifIXaasr2bq31is_trivially_copy_constructibleIT_EE5valuesr2bq31is_trivially_move_constructibleIS2_EE5valueEvE4typeEPS2_S5_m, symObjAddr: 0x1F38, symBinAddr: 0x66C0, symSize: 0x40 }
  - { offsetInCU: 0x1D08, offset: 0x3B93, size: 0x8, addend: 0x0, symName: __ZN2bq20_inner_backward_copyIcEENS_9enable_ifIXaasr2bq31is_trivially_copy_constructibleIT_EE5valuesr2bq28is_trivially_copy_assignableIS2_EE5valueEvE4typeEPS2_PKS2_mm, symObjAddr: 0x2008, symBinAddr: 0x6790, symSize: 0x3C }
  - { offsetInCU: 0x1DCC, offset: 0x3C57, size: 0x8, addend: 0x0, symName: __ZN2bq15_inner_mem_copyIDsEENS_9enable_ifIXaasr2bq31is_trivially_copy_constructibleIT_EE5valuesr2bq31is_trivially_move_constructibleIS2_EE5valueEvE4typeEPS2_S5_m, symObjAddr: 0x23F8, symBinAddr: 0x6B80, symSize: 0x40 }
  - { offsetInCU: 0x1E30, offset: 0x3CBB, size: 0x8, addend: 0x0, symName: __ZN2bqgeIDsDsNS_5arrayIDsLm1EEES2_EEbRKNS_14array_iteratorIT_T1_EERKNS3_IT0_T2_EE, symObjAddr: 0x24E4, symBinAddr: 0x6C6C, symSize: 0xA0 }
  - { offsetInCU: 0x1E8E, offset: 0x3D19, size: 0x8, addend: 0x0, symName: __ZN2bqltIDsDsNS_5arrayIDsLm1EEES2_EEbRKNS_14array_iteratorIT_T1_EERKNS3_IT0_T2_EE, symObjAddr: 0x2584, symBinAddr: 0x6D0C, symSize: 0xA0 }
  - { offsetInCU: 0x1EEC, offset: 0x3D77, size: 0x8, addend: 0x0, symName: __ZN2bqmiIDsDsNS_5arrayIDsLm1EEES2_EENS_14array_iteratorIT_T1_E9diff_typeERKS6_RKNS3_IT0_T2_EE, symObjAddr: 0x2660, symBinAddr: 0x6DE8, symSize: 0xA0 }
  - { offsetInCU: 0x1F4A, offset: 0x3DD5, size: 0x8, addend: 0x0, symName: __ZN2bq7min_refImEERT_S2_S2_, symObjAddr: 0x2700, symBinAddr: 0x6E88, symSize: 0x50 }
  - { offsetInCU: 0x1F8D, offset: 0x3E18, size: 0x8, addend: 0x0, symName: __ZN2bq20_inner_backward_moveIDsEENS_9enable_ifIXaasr2bq28is_trivially_move_assignableIT_EE5valuesr2bq28is_trivially_copy_assignableIS2_EE5valueEvE4typeEPS2_S5_m, symObjAddr: 0x2750, symBinAddr: 0x6ED8, symSize: 0x3C }
  - { offsetInCU: 0x272E, offset: 0x45B9, size: 0x8, addend: 0x0, symName: __ZN2bq11string_baseIcED1Ev, symObjAddr: 0x80, symBinAddr: 0x49C8, symSize: 0x2C }
  - { offsetInCU: 0x2758, offset: 0x45E3, size: 0x8, addend: 0x0, symName: __ZNK2bq11string_baseIcE8is_emptyEv, symObjAddr: 0x1B4, symBinAddr: 0x4AFC, symSize: 0x30 }
  - { offsetInCU: 0x277F, offset: 0x460A, size: 0x8, addend: 0x0, symName: __ZN2bq11string_baseIcEaSEPKc, symObjAddr: 0x1E4, symBinAddr: 0x4B2C, symSize: 0xBC }
  - { offsetInCU: 0x27C1, offset: 0x464C, size: 0x8, addend: 0x0, symName: __ZN2bq11string_baseIcEC1EPKc, symObjAddr: 0x328, symBinAddr: 0x4BE8, symSize: 0x34 }
  - { offsetInCU: 0x27F9, offset: 0x4684, size: 0x8, addend: 0x0, symName: __ZN2bq11string_baseIDsEC1Ev, symObjAddr: 0x450, symBinAddr: 0x4C98, symSize: 0x2C }
  - { offsetInCU: 0x2823, offset: 0x46AE, size: 0x8, addend: 0x0, symName: __ZN2bq11string_baseIDsED1Ev, symObjAddr: 0x47C, symBinAddr: 0x4CC4, symSize: 0x2C }
  - { offsetInCU: 0x284D, offset: 0x46D8, size: 0x8, addend: 0x0, symName: __ZN2bq5arrayIcLm1EE5clearEv, symObjAddr: 0x874, symBinAddr: 0x50BC, symSize: 0x78 }
  - { offsetInCU: 0x2874, offset: 0x46FF, size: 0x8, addend: 0x0, symName: __Z6strstrB8un170006Ua9enable_ifIXLb1EEEPKcS0_, symObjAddr: 0x8EC, symBinAddr: 0x5134, symSize: 0x2C }
  - { offsetInCU: 0x28AE, offset: 0x4739, size: 0x8, addend: 0x0, symName: __ZN2bq5arrayIcLm1EE9push_backIJcEEEmDpOT_, symObjAddr: 0x918, symBinAddr: 0x5160, symSize: 0x58 }
  - { offsetInCU: 0x28EE, offset: 0x4779, size: 0x8, addend: 0x0, symName: __ZN2bq5arrayIcLm1EE12insert_batchENS_14array_iteratorIcS1_EENS2_IKcS1_EEm, symObjAddr: 0x970, symBinAddr: 0x51B8, symSize: 0x284 }
  - { offsetInCU: 0x296F, offset: 0x47FA, size: 0x8, addend: 0x0, symName: __ZN2bq5arrayIcLm1EE3endEv, symObjAddr: 0xBF4, symBinAddr: 0x543C, symSize: 0x3C }
  - { offsetInCU: 0x299B, offset: 0x4826, size: 0x8, addend: 0x0, symName: __ZN2bq14array_iteratorIKcNS_5arrayIcLm1EEEEC1IS1_EEPT_PKS3_, symObjAddr: 0xC30, symBinAddr: 0x5478, symSize: 0x3C }
  - { offsetInCU: 0x29EA, offset: 0x4875, size: 0x8, addend: 0x0, symName: __ZN2bq5arrayIcLm1EE5beginEv, symObjAddr: 0xC6C, symBinAddr: 0x54B4, symSize: 0x34 }
  - { offsetInCU: 0x2A11, offset: 0x489C, size: 0x8, addend: 0x0, symName: __ZNK2bq14array_iteratorIcNS_5arrayIcLm1EEEEcvPcEv, symObjAddr: 0xCA0, symBinAddr: 0x54E8, symSize: 0x18 }
  - { offsetInCU: 0x2A37, offset: 0x48C2, size: 0x8, addend: 0x0, symName: __ZN2bq5arrayIDsLm1EE5clearEv, symObjAddr: 0xE74, symBinAddr: 0x56A4, symSize: 0x78 }
  - { offsetInCU: 0x2A5E, offset: 0x48E9, size: 0x8, addend: 0x0, symName: __ZN2bq5arrayIDsLm1EE18fill_uninitializedIDsEENS_9enable_ifIXsr2bq6is_podIT_EE5valueEvE4typeEm, symObjAddr: 0xEEC, symBinAddr: 0x571C, symSize: 0xC4 }
  - { offsetInCU: 0x2A9C, offset: 0x4927, size: 0x8, addend: 0x0, symName: __ZN2bq5arrayIDsLm1EE5beginEv, symObjAddr: 0xFB0, symBinAddr: 0x57E0, symSize: 0x34 }
  - { offsetInCU: 0x2AC3, offset: 0x494E, size: 0x8, addend: 0x0, symName: __ZNK2bq14array_iteratorIDsNS_5arrayIDsLm1EEEEcvPDsEv, symObjAddr: 0xFE4, symBinAddr: 0x5814, symSize: 0x18 }
  - { offsetInCU: 0x2AE9, offset: 0x4974, size: 0x8, addend: 0x0, symName: __ZNK2bq5arrayIDsLm1EE4sizeEv, symObjAddr: 0xFFC, symBinAddr: 0x582C, symSize: 0x18 }
  - { offsetInCU: 0x2B10, offset: 0x499B, size: 0x8, addend: 0x0, symName: __ZN2bq5arrayIDsLm1EE5eraseENS_14array_iteratorIDsS1_EEm, symObjAddr: 0x1014, symBinAddr: 0x5844, symSize: 0x270 }
  - { offsetInCU: 0x2B73, offset: 0x49FE, size: 0x8, addend: 0x0, symName: __ZN2bq14array_iteratorIDsNS_5arrayIDsLm1EEEEplEm, symObjAddr: 0x1284, symBinAddr: 0x5AB4, symSize: 0x44 }
  - { offsetInCU: 0x2BB5, offset: 0x4A40, size: 0x8, addend: 0x0, symName: __ZN2bq11string_baseIcED2Ev, symObjAddr: 0x12C8, symBinAddr: 0x5AF8, symSize: 0x2C }
  - { offsetInCU: 0x2BDF, offset: 0x4A6A, size: 0x8, addend: 0x0, symName: __ZN2bq5arrayIcLm1EED2Ev, symObjAddr: 0x12F4, symBinAddr: 0x5B24, symSize: 0x2C }
  - { offsetInCU: 0x2C09, offset: 0x4A94, size: 0x8, addend: 0x0, symName: __ZN2bq11string_baseIDsED2Ev, symObjAddr: 0x137C, symBinAddr: 0x5B50, symSize: 0x2C }
  - { offsetInCU: 0x2C33, offset: 0x4ABE, size: 0x8, addend: 0x0, symName: __ZN2bq5arrayIDsLm1EED2Ev, symObjAddr: 0x13A8, symBinAddr: 0x5B7C, symSize: 0x2C }
  - { offsetInCU: 0x2C5D, offset: 0x4AE8, size: 0x8, addend: 0x0, symName: __ZN2bq5arrayIDsLm1EE5resetIDsEENS_9enable_ifIXsr2bq6is_podIT_EE5valueEvE4typeEv, symObjAddr: 0x13D4, symBinAddr: 0x5BA8, symSize: 0x5C }
  - { offsetInCU: 0x2C8D, offset: 0x4B18, size: 0x8, addend: 0x0, symName: __ZN2bq11string_baseIcEC2EPKc, symObjAddr: 0x14C8, symBinAddr: 0x5C50, symSize: 0x10C }
  - { offsetInCU: 0x2CD9, offset: 0x4B64, size: 0x8, addend: 0x0, symName: __ZN2bq11string_baseIDsEC2Ev, symObjAddr: 0x15D4, symBinAddr: 0x5D5C, symSize: 0x2C }
  - { offsetInCU: 0x2D03, offset: 0x4B8E, size: 0x8, addend: 0x0, symName: __ZN2bq5arrayIDsLm1EEC2Ev, symObjAddr: 0x1600, symBinAddr: 0x5D88, symSize: 0x20 }
  - { offsetInCU: 0x2D2D, offset: 0x4BB8, size: 0x8, addend: 0x0, symName: __ZN2bq23object_array_destructorIcE8destructEPcm, symObjAddr: 0x1620, symBinAddr: 0x5DA8, symSize: 0x2C }
  - { offsetInCU: 0x2D5D, offset: 0x4BE8, size: 0x8, addend: 0x0, symName: __ZN2bq23object_array_destructorIcE15destructor_implIcNS1_23trivial_destructor_typeEE8destructEPcm, symObjAddr: 0x164C, symBinAddr: 0x5DD4, symSize: 0x14 }
  - { offsetInCU: 0x2D8D, offset: 0x4C18, size: 0x8, addend: 0x0, symName: __ZN2bq5arrayIcLm1EE6insertIJcEEEvNS_14array_iteratorIcS1_EEDpOT_, symObjAddr: 0x1660, symBinAddr: 0x5DE8, symSize: 0x2A0 }
  - { offsetInCU: 0x2E1B, offset: 0x4CA6, size: 0x8, addend: 0x0, symName: __ZN2bq5arrayIcLm1EE12set_capacityEmb, symObjAddr: 0x1AEC, symBinAddr: 0x6274, symSize: 0x228 }
  - { offsetInCU: 0x2E8A, offset: 0x4D15, size: 0x8, addend: 0x0, symName: __ZN2bq14array_iteratorIcNS_5arrayIcLm1EEEEplEm, symObjAddr: 0x1D14, symBinAddr: 0x649C, symSize: 0x44 }
  - { offsetInCU: 0x2ECC, offset: 0x4D57, size: 0x8, addend: 0x0, symName: __ZN2bq5arrayIcLm1EE8destructENS_14array_iteratorIcS1_EE, symObjAddr: 0x1D90, symBinAddr: 0x6518, symSize: 0x34 }
  - { offsetInCU: 0x2F01, offset: 0x4D8C, size: 0x8, addend: 0x0, symName: __ZN2bq5arrayIcLm1EE9constructIJcEEEvNS_14array_iteratorIcS1_EEDpOT_, symObjAddr: 0x1DC4, symBinAddr: 0x654C, symSize: 0x98 }
  - { offsetInCU: 0x2F5E, offset: 0x4DE9, size: 0x8, addend: 0x0, symName: __ZN2bq14array_iteratorIcNS_5arrayIcLm1EEEEpLEi, symObjAddr: 0x1F78, symBinAddr: 0x6700, symSize: 0x28 }
  - { offsetInCU: 0x2F92, offset: 0x4E1D, size: 0x8, addend: 0x0, symName: __ZN2bq17object_destructorIcE8destructEPc, symObjAddr: 0x1FA0, symBinAddr: 0x6728, symSize: 0x24 }
  - { offsetInCU: 0x2FB4, offset: 0x4E3F, size: 0x8, addend: 0x0, symName: __ZNK2bq14array_iteratorIcNS_5arrayIcLm1EEEEptEv, symObjAddr: 0x1FC4, symBinAddr: 0x674C, symSize: 0x18 }
  - { offsetInCU: 0x2FDA, offset: 0x4E65, size: 0x8, addend: 0x0, symName: __ZN2bq17object_destructorIcE15destructor_implIcNS1_23trivial_destructor_typeEE8destructEPc, symObjAddr: 0x1FDC, symBinAddr: 0x6764, symSize: 0x10 }
  - { offsetInCU: 0x2FFC, offset: 0x4E87, size: 0x8, addend: 0x0, symName: __ZnwmPvN2bq14enum_new_dummyE, symObjAddr: 0x1FEC, symBinAddr: 0x6774, symSize: 0x1C }
  - { offsetInCU: 0x303C, offset: 0x4EC7, size: 0x8, addend: 0x0, symName: __ZNK2bq14array_iteratorIKcNS_5arrayIcLm1EEEEcvPS1_Ev, symObjAddr: 0x2044, symBinAddr: 0x67CC, symSize: 0x18 }
  - { offsetInCU: 0x3062, offset: 0x4EED, size: 0x8, addend: 0x0, symName: __ZN2bq14array_iteratorIcNS_5arrayIcLm1EEEEC1IcEEPT_PKS2_, symObjAddr: 0x205C, symBinAddr: 0x67E4, symSize: 0x3C }
  - { offsetInCU: 0x30B1, offset: 0x4F3C, size: 0x8, addend: 0x0, symName: __ZN2bq14array_iteratorIcNS_5arrayIcLm1EEEEC2IcEEPT_PKS2_, symObjAddr: 0x2098, symBinAddr: 0x6820, symSize: 0x70 }
  - { offsetInCU: 0x3100, offset: 0x4F8B, size: 0x8, addend: 0x0, symName: __ZN2bq14array_iteratorIKcNS_5arrayIcLm1EEEEC2IS1_EEPT_PKS3_, symObjAddr: 0x2108, symBinAddr: 0x6890, symSize: 0x70 }
  - { offsetInCU: 0x3154, offset: 0x4FDF, size: 0x8, addend: 0x0, symName: __ZN2bq23object_array_destructorIDsE8destructEPDsm, symObjAddr: 0x2178, symBinAddr: 0x6900, symSize: 0x2C }
  - { offsetInCU: 0x3184, offset: 0x500F, size: 0x8, addend: 0x0, symName: __ZN2bq23object_array_destructorIDsE15destructor_implIDsNS1_23trivial_destructor_typeEE8destructEPDsm, symObjAddr: 0x21A4, symBinAddr: 0x692C, symSize: 0x14 }
  - { offsetInCU: 0x31B4, offset: 0x503F, size: 0x8, addend: 0x0, symName: __ZNK2bq5arrayIDsLm1EE8capacityEv, symObjAddr: 0x21B8, symBinAddr: 0x6940, symSize: 0x18 }
  - { offsetInCU: 0x31DB, offset: 0x5066, size: 0x8, addend: 0x0, symName: __ZN2bq5arrayIDsLm1EE12set_capacityEmb, symObjAddr: 0x21D0, symBinAddr: 0x6958, symSize: 0x228 }
  - { offsetInCU: 0x324F, offset: 0x50DA, size: 0x8, addend: 0x0, symName: __ZN2bq14array_iteratorIDsNS_5arrayIDsLm1EEEEC1IDsEEPT_PKS2_, symObjAddr: 0x2438, symBinAddr: 0x6BC0, symSize: 0x3C }
  - { offsetInCU: 0x329E, offset: 0x5129, size: 0x8, addend: 0x0, symName: __ZN2bq14array_iteratorIDsNS_5arrayIDsLm1EEEEC2IDsEEPT_PKS2_, symObjAddr: 0x2474, symBinAddr: 0x6BFC, symSize: 0x70 }
  - { offsetInCU: 0x32ED, offset: 0x5178, size: 0x8, addend: 0x0, symName: __ZN2bq5arrayIDsLm1EE3endEv, symObjAddr: 0x2624, symBinAddr: 0x6DAC, symSize: 0x3C }
  - { offsetInCU: 0x3314, offset: 0x519F, size: 0x8, addend: 0x0, symName: __ZNK2bq14array_iteratorIDsNS_5arrayIDsLm1EEEEptEv, symObjAddr: 0x278C, symBinAddr: 0x6F14, symSize: 0x18 }
  - { offsetInCU: 0x333A, offset: 0x51C5, size: 0x8, addend: 0x0, symName: __ZN2bq14array_iteratorIDsNS_5arrayIDsLm1EEEEpLEi, symObjAddr: 0x27A4, symBinAddr: 0x6F2C, symSize: 0x28 }
  - { offsetInCU: 0x336E, offset: 0x51F9, size: 0x8, addend: 0x0, symName: __ZTHN2bq8platformL24stack_trace_current_str_E, symObjAddr: 0x27CC, symBinAddr: 0x6F54, symSize: 0x0 }
  - { offsetInCU: 0x26, offset: 0x5365, size: 0x8, addend: 0x0, symName: __ZN2bq8platform13get_file_sizeEPKcRm, symObjAddr: 0x0, symBinAddr: 0x7158, symSize: 0xA4 }
  - { offsetInCU: 0x72, offset: 0x53B1, size: 0x8, addend: 0x0, symName: __ZN2bq8platformL24get_file_exclusive_mutexEv, symObjAddr: 0x1560, symBinAddr: 0x8518, symSize: 0x94 }
  - { offsetInCU: 0x9D, offset: 0x53DC, size: 0x8, addend: 0x0, symName: __ZZN2bq8platformL24get_file_exclusive_mutexEvE20file_exclusive_mutex, symObjAddr: 0x197E0, symBinAddr: 0x688F8, symSize: 0x0 }
  - { offsetInCU: 0x1AC, offset: 0x54EB, size: 0x8, addend: 0x0, symName: __ZN2bq8platformL24get_file_exclusive_cacheEv, symObjAddr: 0x15F4, symBinAddr: 0x85AC, symSize: 0x98 }
  - { offsetInCU: 0x1D7, offset: 0x5516, size: 0x8, addend: 0x0, symName: __ZZN2bq8platformL24get_file_exclusive_cacheEvE20file_exclusive_cache, symObjAddr: 0x197F8, symBinAddr: 0x68910, symSize: 0x0 }
  - { offsetInCU: 0x2D7, offset: 0x5616, size: 0x8, addend: 0x0, symName: __ZN2bq8platform13get_file_sizeEPKcRm, symObjAddr: 0x0, symBinAddr: 0x7158, symSize: 0xA4 }
  - { offsetInCU: 0x32D, offset: 0x566C, size: 0x8, addend: 0x0, symName: __ZN2bq8platform13get_file_sizeERKiRm, symObjAddr: 0xA4, symBinAddr: 0x71FC, symSize: 0xA8 }
  - { offsetInCU: 0x383, offset: 0x56C2, size: 0x8, addend: 0x0, symName: __ZN2bq8platform6is_dirEPKc, symObjAddr: 0x14C, symBinAddr: 0x72A4, symSize: 0x90 }
  - { offsetInCU: 0x3CB, offset: 0x570A, size: 0x8, addend: 0x0, symName: __ZN2bq8platform15is_regular_fileEPKc, symObjAddr: 0x1DC, symBinAddr: 0x7334, symSize: 0x90 }
  - { offsetInCU: 0x413, offset: 0x5752, size: 0x8, addend: 0x0, symName: __ZN2bq8platform8make_dirEPKc, symObjAddr: 0x26C, symBinAddr: 0x73C4, symSize: 0x64 }
  - { offsetInCU: 0x45B, offset: 0x579A, size: 0x8, addend: 0x0, symName: __ZN2bq8platformL18make_dir_recursiveEPc, symObjAddr: 0x2D0, symBinAddr: 0x7428, symSize: 0xF4 }
  - { offsetInCU: 0x4CD, offset: 0x580C, size: 0x8, addend: 0x0, symName: __ZN2bq8platform13truncate_fileERKim, symObjAddr: 0x564, symBinAddr: 0x751C, symSize: 0x68 }
  - { offsetInCU: 0x515, offset: 0x5854, size: 0x8, addend: 0x0, symName: __ZN2bq8platform24remove_dir_or_file_innerEPcm, symObjAddr: 0x5CC, symBinAddr: 0x7584, symSize: 0x234 }
  - { offsetInCU: 0x5B1, offset: 0x58F0, size: 0x8, addend: 0x0, symName: __ZN2bq8platform15__posix_opendirEPKc, symObjAddr: 0x800, symBinAddr: 0x77B8, symSize: 0x38 }
  - { offsetInCU: 0x5DD, offset: 0x591C, size: 0x8, addend: 0x0, symName: __ZN2bq8platform18remove_dir_or_fileEPKc, symObjAddr: 0x8A0, symBinAddr: 0x7858, symSize: 0x13C }
  - { offsetInCU: 0x64E, offset: 0x598D, size: 0x8, addend: 0x0, symName: __ZN2bq8platform9open_fileEPKcNS0_19file_open_mode_enumERi, symObjAddr: 0x9DC, symBinAddr: 0x7994, symSize: 0x1AC }
  - { offsetInCU: 0x786, offset: 0x5AC5, size: 0x8, addend: 0x0, symName: __ZN2bq8platformL25add_file_execlusive_checkERKiNS0_19file_open_mode_enumE, symObjAddr: 0xB88, symBinAddr: 0x7B40, symSize: 0x238 }
  - { offsetInCU: 0x8BC, offset: 0x5BFB, size: 0x8, addend: 0x0, symName: __ZN2bq8platform10close_fileERi, symObjAddr: 0xDC0, symBinAddr: 0x7D78, symSize: 0x70 }
  - { offsetInCU: 0x8F9, offset: 0x5C38, size: 0x8, addend: 0x0, symName: __ZN2bq8platformL28remove_file_execlusive_checkERKi, symObjAddr: 0xE30, symBinAddr: 0x7DE8, symSize: 0xBC }
  - { offsetInCU: 0x970, offset: 0x5CAF, size: 0x8, addend: 0x0, symName: __ZN2bq8platform9read_fileERKiPvmRm, symObjAddr: 0xEEC, symBinAddr: 0x7EA4, symSize: 0xFC }
  - { offsetInCU: 0xA15, offset: 0x5D54, size: 0x8, addend: 0x0, symName: __ZN2bq8platform10write_fileERKiPKvmRm, symObjAddr: 0x1040, symBinAddr: 0x7FF8, symSize: 0xFC }
  - { offsetInCU: 0xABA, offset: 0x5DF9, size: 0x8, addend: 0x0, symName: __ZN2bq8platform9seek_fileERKiNS0_16file_seek_optionEx, symObjAddr: 0x113C, symBinAddr: 0x80F4, symSize: 0xD8 }
  - { offsetInCU: 0xB32, offset: 0x5E71, size: 0x8, addend: 0x0, symName: __ZN2bq8platform10flush_fileERKi, symObjAddr: 0x1214, symBinAddr: 0x81CC, symSize: 0x54 }
  - { offsetInCU: 0xB60, offset: 0x5E9F, size: 0x8, addend: 0x0, symName: __ZN2bq8platform17get_all_sub_namesEPKc, symObjAddr: 0x1268, symBinAddr: 0x8220, symSize: 0x174 }
  - { offsetInCU: 0x1D83, offset: 0x70C2, size: 0x8, addend: 0x0, symName: __ZN2bq9min_valueImEET_RKS1_S3_, symObjAddr: 0xFE8, symBinAddr: 0x7FA0, symSize: 0x58 }
  - { offsetInCU: 0x1DC6, offset: 0x7105, size: 0x8, addend: 0x0, symName: __ZN2bqeqINS_8platform20posix_file_node_infoENS1_19file_open_mode_enumELb0ELb0EEEbRKNS_17hash_map_iteratorIT_T0_XT1_EEERKNS4_IS5_S6_XT2_EEE, symObjAddr: 0x1734, symBinAddr: 0x86EC, symSize: 0xE4 }
  - { offsetInCU: 0x1E26, offset: 0x7165, size: 0x8, addend: 0x0, symName: __ZN2bq18roundup_pow_of_twoIjEET_S1_, symObjAddr: 0x224C, symBinAddr: 0x9204, symSize: 0x84 }
  - { offsetInCU: 0x1E6A, offset: 0x71A9, size: 0x8, addend: 0x0, symName: __ZN2bqneINS_8platform20posix_file_node_infoENS1_19file_open_mode_enumELb0ELb0EEEbRKNS_17hash_map_iteratorIT_T0_XT1_EEERKNS4_IS5_S6_XT2_EEE, symObjAddr: 0x256C, symBinAddr: 0x9524, symSize: 0x34 }
  - { offsetInCU: 0x1ECA, offset: 0x7209, size: 0x8, addend: 0x0, symName: __ZN2bq4moveIRNS_8platform20posix_file_node_infoEEEONS_16remove_referenceIT_E4typeEOS5_, symObjAddr: 0x25BC, symBinAddr: 0x9558, symSize: 0x14 }
  - { offsetInCU: 0x1EFF, offset: 0x723E, size: 0x8, addend: 0x0, symName: __ZN2bq4moveIRNS_8platform19file_open_mode_enumEEEONS_16remove_referenceIT_E4typeEOS5_, symObjAddr: 0x2604, symBinAddr: 0x95A0, symSize: 0x14 }
  - { offsetInCU: 0x1FE0, offset: 0x731F, size: 0x8, addend: 0x0, symName: __ZN2bq7forwardIRjEEOT_RNS_16remove_referenceIS2_E4typeE, symObjAddr: 0x2CD8, symBinAddr: 0x9C74, symSize: 0x14 }
  - { offsetInCU: 0x2015, offset: 0x7354, size: 0x8, addend: 0x0, symName: __ZN2bq7forwardIRNS_8platform19file_open_mode_enumEEEOT_RNS_16remove_referenceIS4_E4typeE, symObjAddr: 0x305C, symBinAddr: 0x9FF8, symSize: 0x14 }
  - { offsetInCU: 0x204A, offset: 0x7389, size: 0x8, addend: 0x0, symName: __ZN2bq7forwardIRKNS_8platform20posix_file_node_infoEEEOT_RNS_16remove_referenceIS5_E4typeE, symObjAddr: 0x3100, symBinAddr: 0xA09C, symSize: 0x14 }
  - { offsetInCU: 0x2135, offset: 0x7474, size: 0x8, addend: 0x0, symName: __ZN2bq7forwardIRPKcEEOT_RNS_16remove_referenceIS4_E4typeE, symObjAddr: 0x3B48, symBinAddr: 0xAA04, symSize: 0x14 }
  - { offsetInCU: 0x216A, offset: 0x74A9, size: 0x8, addend: 0x0, symName: __ZN2bqgeINS_11string_baseIcEES2_NS_5arrayIS2_Lm0EEES4_EEbRKNS_14array_iteratorIT_T1_EERKNS5_IT0_T2_EE, symObjAddr: 0x3B5C, symBinAddr: 0xAA18, symSize: 0xA0 }
  - { offsetInCU: 0x21C8, offset: 0x7507, size: 0x8, addend: 0x0, symName: __ZN2bqleINS_11string_baseIcEES2_NS_5arrayIS2_Lm0EEES4_EEbRKNS_14array_iteratorIT_T1_EERKNS5_IT0_T2_EE, symObjAddr: 0x3C30, symBinAddr: 0xAAEC, symSize: 0xA0 }
  - { offsetInCU: 0x2226, offset: 0x7565, size: 0x8, addend: 0x0, symName: __ZN2bqmiINS_11string_baseIcEES2_NS_5arrayIS2_Lm0EEES4_EENS_14array_iteratorIT_T1_E9diff_typeERKS8_RKNS5_IT0_T2_EE, symObjAddr: 0x3CD0, symBinAddr: 0xAB8C, symSize: 0xA0 }
  - { offsetInCU: 0x2284, offset: 0x75C3, size: 0x8, addend: 0x0, symName: __ZN2bq19_inner_forward_moveINS_11string_baseIcEEEENS_9enable_ifIXntaasr2bq31is_trivially_copy_constructibleIT_EE5valuesr2bq31is_trivially_move_constructibleIS4_EE5valueEvE4typeEPS4_S7_m, symObjAddr: 0x3FFC, symBinAddr: 0xAEB8, symSize: 0x140 }
  - { offsetInCU: 0x233F, offset: 0x767E, size: 0x8, addend: 0x0, symName: __ZN2bq15_inner_mem_copyINS_11string_baseIcEEEENS_9enable_ifIXntaasr2bq31is_trivially_copy_constructibleIT_EE5valuesr2bq31is_trivially_move_constructibleIS4_EE5valueEvE4typeEPS4_S7_m, symObjAddr: 0x4370, symBinAddr: 0xB150, symSize: 0xCC }
  - { offsetInCU: 0x23B1, offset: 0x76F0, size: 0x8, addend: 0x0, symName: __ZN2bq4moveIRNS_11string_baseIcEEEEONS_16remove_referenceIT_E4typeEOS5_, symObjAddr: 0x443C, symBinAddr: 0xB21C, symSize: 0x14 }
  - { offsetInCU: 0x23E6, offset: 0x7725, size: 0x8, addend: 0x0, symName: __ZN2bq7forwardINS_11string_baseIcEEEEOT_RNS_16remove_referenceIS3_E4typeE, symObjAddr: 0x44C4, symBinAddr: 0xB2A4, symSize: 0x14 }
  - { offsetInCU: 0x2796, offset: 0x7AD5, size: 0x8, addend: 0x0, symName: __ZN2bq8hash_mapINS_8platform20posix_file_node_infoENS1_19file_open_mode_enumEE12expand_nodesEj, symObjAddr: 0x1F00, symBinAddr: 0x8EB8, symSize: 0x2F0 }
  - { offsetInCU: 0x2E48, offset: 0x8187, size: 0x8, addend: 0x0, symName: __ZNK2bq8platform22posix_dir_stack_holdercvbEv, symObjAddr: 0x838, symBinAddr: 0x77F0, symSize: 0x24 }
  - { offsetInCU: 0x2E6C, offset: 0x81AB, size: 0x8, addend: 0x0, symName: __ZN2bq8platform22posix_dir_stack_holderadEv, symObjAddr: 0x85C, symBinAddr: 0x7814, symSize: 0x18 }
  - { offsetInCU: 0x2E90, offset: 0x81CF, size: 0x8, addend: 0x0, symName: __ZN2bq8platform22posix_dir_stack_holderD1Ev, symObjAddr: 0x874, symBinAddr: 0x782C, symSize: 0x2C }
  - { offsetInCU: 0x2EB8, offset: 0x81F7, size: 0x8, addend: 0x0, symName: __ZN2bq5arrayINS_11string_baseIcEELm0EEC1Ev, symObjAddr: 0x13DC, symBinAddr: 0x8394, symSize: 0x2C }
  - { offsetInCU: 0x2EE7, offset: 0x8226, size: 0x8, addend: 0x0, symName: __ZN2bq5arrayINS_11string_baseIcEELm0EE9push_backIJRPKcEEEmDpOT_, symObjAddr: 0x1408, symBinAddr: 0x83C0, symSize: 0x58 }
  - { offsetInCU: 0x2F27, offset: 0x8266, size: 0x8, addend: 0x0, symName: __ZN2bq5arrayINS_11string_baseIcEELm0EED1Ev, symObjAddr: 0x1460, symBinAddr: 0x8418, symSize: 0x2C }
  - { offsetInCU: 0x2F51, offset: 0x8290, size: 0x8, addend: 0x0, symName: __Z7strrchrB8un170006Ua9enable_ifIXLb1EEEPci, symObjAddr: 0x148C, symBinAddr: 0x8444, symSize: 0x2C }
  - { offsetInCU: 0x2F8B, offset: 0x82CA, size: 0x8, addend: 0x0, symName: __ZN2bq8platform22posix_dir_stack_holderC1EP3DIR, symObjAddr: 0x14B8, symBinAddr: 0x8470, symSize: 0x34 }
  - { offsetInCU: 0x2FC1, offset: 0x8300, size: 0x8, addend: 0x0, symName: __ZN2bq8platform22posix_dir_stack_holderC2EP3DIR, symObjAddr: 0x14EC, symBinAddr: 0x84A4, symSize: 0x20 }
  - { offsetInCU: 0x2FF7, offset: 0x8336, size: 0x8, addend: 0x0, symName: __ZN2bq8platform22posix_dir_stack_holderD2Ev, symObjAddr: 0x150C, symBinAddr: 0x84C4, symSize: 0x54 }
  - { offsetInCU: 0x3024, offset: 0x8363, size: 0x8, addend: 0x0, symName: __ZN2bq8platform12scoped_mutexC1ERNS0_5mutexE, symObjAddr: 0x168C, symBinAddr: 0x8644, symSize: 0x34 }
  - { offsetInCU: 0x305A, offset: 0x8399, size: 0x8, addend: 0x0, symName: __ZN2bq8hash_mapINS_8platform20posix_file_node_infoENS1_19file_open_mode_enumEE4findERKS2_, symObjAddr: 0x16C0, symBinAddr: 0x8678, symSize: 0x74 }
  - { offsetInCU: 0x309C, offset: 0x83DB, size: 0x8, addend: 0x0, symName: __ZN2bq8hash_mapINS_8platform20posix_file_node_infoENS1_19file_open_mode_enumEE3endEv, symObjAddr: 0x1818, symBinAddr: 0x87D0, symSize: 0x38 }
  - { offsetInCU: 0x30C3, offset: 0x8402, size: 0x8, addend: 0x0, symName: __ZN2bq8hash_mapINS_8platform20posix_file_node_infoENS1_19file_open_mode_enumEE3addIRS3_EENS_17hash_map_iteratorIS2_S3_Lb0EEERKS2_OT_, symObjAddr: 0x1850, symBinAddr: 0x8808, symSize: 0x74 }
  - { offsetInCU: 0x311C, offset: 0x845B, size: 0x8, addend: 0x0, symName: __ZN2bq17hash_map_iteratorINS_8platform20posix_file_node_infoENS1_19file_open_mode_enumELb0EEptEv, symObjAddr: 0x18C4, symBinAddr: 0x887C, symSize: 0x34 }
  - { offsetInCU: 0x3142, offset: 0x8481, size: 0x8, addend: 0x0, symName: __ZN2bq7kv_pairINS_8platform20posix_file_node_infoENS1_19file_open_mode_enumEE5valueEv, symObjAddr: 0x18F8, symBinAddr: 0x88B0, symSize: 0x18 }
  - { offsetInCU: 0x3166, offset: 0x84A5, size: 0x8, addend: 0x0, symName: __ZN2bq8platform12scoped_mutexD1Ev, symObjAddr: 0x1910, symBinAddr: 0x88C8, symSize: 0x2C }
  - { offsetInCU: 0x318E, offset: 0x84CD, size: 0x8, addend: 0x0, symName: __ZN2bq8hash_mapINS_8platform20posix_file_node_infoENS1_19file_open_mode_enumEEC1Ej, symObjAddr: 0x193C, symBinAddr: 0x88F4, symSize: 0x34 }
  - { offsetInCU: 0x31C6, offset: 0x8505, size: 0x8, addend: 0x0, symName: __ZN2bq8hash_mapINS_8platform20posix_file_node_infoENS1_19file_open_mode_enumEED1Ev, symObjAddr: 0x1970, symBinAddr: 0x8928, symSize: 0x2C }
  - { offsetInCU: 0x31F0, offset: 0x852F, size: 0x8, addend: 0x0, symName: __ZN2bq8hash_mapINS_8platform20posix_file_node_infoENS1_19file_open_mode_enumEEC2Ej, symObjAddr: 0x199C, symBinAddr: 0x8954, symSize: 0x78 }
  - { offsetInCU: 0x3228, offset: 0x8567, size: 0x8, addend: 0x0, symName: __ZN2bq8hash_mapINS_8platform20posix_file_node_infoENS1_19file_open_mode_enumEE22value_node_buffer_headIjEC1Ev, symObjAddr: 0x1A14, symBinAddr: 0x89CC, symSize: 0x2C }
  - { offsetInCU: 0x3250, offset: 0x858F, size: 0x8, addend: 0x0, symName: __ZN2bq8hash_mapINS_8platform20posix_file_node_infoENS1_19file_open_mode_enumEE22value_node_buffer_headINS4_10value_nodeEEC1Ev, symObjAddr: 0x1A40, symBinAddr: 0x89F8, symSize: 0x2C }
  - { offsetInCU: 0x3278, offset: 0x85B7, size: 0x8, addend: 0x0, symName: __ZN2bq8hash_mapINS_8platform20posix_file_node_infoENS1_19file_open_mode_enumEE14expand_bucketsEj, symObjAddr: 0x1A6C, symBinAddr: 0x8A24, symSize: 0x494 }
  - { offsetInCU: 0x337D, offset: 0x86BC, size: 0x8, addend: 0x0, symName: __ZNK2bq8hash_mapINS_8platform20posix_file_node_infoENS1_19file_open_mode_enumEE12buckets_sizeEv, symObjAddr: 0x21F0, symBinAddr: 0x91A8, symSize: 0x24 }
  - { offsetInCU: 0x33A3, offset: 0x86E2, size: 0x8, addend: 0x0, symName: __ZN2bq8hash_mapINS_8platform20posix_file_node_infoENS1_19file_open_mode_enumEE22value_node_buffer_headIjEC2Ev, symObjAddr: 0x2214, symBinAddr: 0x91CC, symSize: 0x1C }
  - { offsetInCU: 0x33CB, offset: 0x870A, size: 0x8, addend: 0x0, symName: __ZN2bq8hash_mapINS_8platform20posix_file_node_infoENS1_19file_open_mode_enumEE22value_node_buffer_headINS4_10value_nodeEEC2Ev, symObjAddr: 0x2230, symBinAddr: 0x91E8, symSize: 0x1C }
  - { offsetInCU: 0x33F3, offset: 0x8732, size: 0x8, addend: 0x0, symName: __ZNK2bq8hash_mapINS_8platform20posix_file_node_infoENS1_19file_open_mode_enumEE22value_node_buffer_headIjE4sizeEv, symObjAddr: 0x22D0, symBinAddr: 0x9288, symSize: 0x18 }
  - { offsetInCU: 0x3417, offset: 0x8756, size: 0x8, addend: 0x0, symName: __ZN2bq8hash_mapINS_8platform20posix_file_node_infoENS1_19file_open_mode_enumEE22value_node_buffer_headIjEixEj, symObjAddr: 0x22E8, symBinAddr: 0x92A0, symSize: 0x74 }
  - { offsetInCU: 0x3449, offset: 0x8788, size: 0x8, addend: 0x0, symName: __ZN2bq8hash_mapINS_8platform20posix_file_node_infoENS1_19file_open_mode_enumEE22value_node_buffer_headINS4_10value_nodeEEixEj, symObjAddr: 0x235C, symBinAddr: 0x9314, symSize: 0x7C }
  - { offsetInCU: 0x347B, offset: 0x87BA, size: 0x8, addend: 0x0, symName: __ZNK2bq8hash_mapINS_8platform20posix_file_node_infoENS1_19file_open_mode_enumEE23get_bucket_index_by_keyERKS2_, symObjAddr: 0x23D8, symBinAddr: 0x9390, symSize: 0x44 }
  - { offsetInCU: 0x34C0, offset: 0x87FF, size: 0x8, addend: 0x0, symName: __ZNK2bq7kv_pairINS_8platform20posix_file_node_infoENS1_19file_open_mode_enumEE3keyEv, symObjAddr: 0x241C, symBinAddr: 0x93D4, symSize: 0x14 }
  - { offsetInCU: 0x34E4, offset: 0x8823, size: 0x8, addend: 0x0, symName: __ZNK2bq8hash_mapINS_8platform20posix_file_node_infoENS1_19file_open_mode_enumEE4sizeEv, symObjAddr: 0x2430, symBinAddr: 0x93E8, symSize: 0x18 }
  - { offsetInCU: 0x350A, offset: 0x8849, size: 0x8, addend: 0x0, symName: __ZN2bq28generic_type_hash_calculatorINS_8platform20posix_file_node_infoEE9hash_codeERKS2_, symObjAddr: 0x2448, symBinAddr: 0x9400, symSize: 0x24 }
  - { offsetInCU: 0x352C, offset: 0x886B, size: 0x8, addend: 0x0, symName: __ZNK2bq8hash_mapINS_8platform20posix_file_node_infoENS1_19file_open_mode_enumEE24get_bucket_index_by_hashEy, symObjAddr: 0x246C, symBinAddr: 0x9424, symSize: 0x3C }
  - { offsetInCU: 0x3562, offset: 0x88A1, size: 0x8, addend: 0x0, symName: __ZNK2bq8platform20posix_file_node_info9hash_codeEv, symObjAddr: 0x24A8, symBinAddr: 0x9460, symSize: 0x28 }
  - { offsetInCU: 0x3586, offset: 0x88C5, size: 0x8, addend: 0x0, symName: __ZNK2bq8hash_mapINS_8platform20posix_file_node_infoENS1_19file_open_mode_enumEE22value_node_buffer_headINS4_10value_nodeEE4sizeEv, symObjAddr: 0x24D0, symBinAddr: 0x9488, symSize: 0x18 }
  - { offsetInCU: 0x35AA, offset: 0x88E9, size: 0x8, addend: 0x0, symName: __ZN2bq8hash_mapINS_8platform20posix_file_node_infoENS1_19file_open_mode_enumEE5beginEv, symObjAddr: 0x24E8, symBinAddr: 0x94A0, symSize: 0x84 }
  - { offsetInCU: 0x35D1, offset: 0x8910, size: 0x8, addend: 0x0, symName: __ZN2bq17hash_map_iteratorINS_8platform20posix_file_node_infoENS1_19file_open_mode_enumELb0EEdeEv, symObjAddr: 0x25D0, symBinAddr: 0x956C, symSize: 0x34 }
  - { offsetInCU: 0x35F7, offset: 0x8936, size: 0x8, addend: 0x0, symName: __ZN2bq8hash_mapINS_8platform20posix_file_node_infoENS1_19file_open_mode_enumEE8destructERNS_17hash_map_iteratorIS2_S3_Lb0EEE, symObjAddr: 0x2618, symBinAddr: 0x95B4, symSize: 0x3C }
  - { offsetInCU: 0x362D, offset: 0x896C, size: 0x8, addend: 0x0, symName: __ZN2bq17hash_map_iteratorINS_8platform20posix_file_node_infoENS1_19file_open_mode_enumELb0EEppEv, symObjAddr: 0x2654, symBinAddr: 0x95F0, symSize: 0x88 }
  - { offsetInCU: 0x3653, offset: 0x8992, size: 0x8, addend: 0x0, symName: __ZN2bq17hash_map_iteratorINS_8platform20posix_file_node_infoENS1_19file_open_mode_enumELb0EEC1EPNS_8hash_mapIS2_S3_EEjj, symObjAddr: 0x26DC, symBinAddr: 0x9678, symSize: 0x44 }
  - { offsetInCU: 0x36A5, offset: 0x89E4, size: 0x8, addend: 0x0, symName: __ZN2bq17hash_map_iteratorINS_8platform20posix_file_node_infoENS1_19file_open_mode_enumELb0EEC2EPNS_8hash_mapIS2_S3_EEjj, symObjAddr: 0x2720, symBinAddr: 0x96BC, symSize: 0x38 }
  - { offsetInCU: 0x36F7, offset: 0x8A36, size: 0x8, addend: 0x0, symName: __ZN2bq8hash_mapINS_8platform20posix_file_node_infoENS1_19file_open_mode_enumEE12destruct_keyERNS_17hash_map_iteratorIS2_S3_Lb0EEE, symObjAddr: 0x2758, symBinAddr: 0x96F4, symSize: 0x2C }
  - { offsetInCU: 0x372D, offset: 0x8A6C, size: 0x8, addend: 0x0, symName: __ZN2bq8hash_mapINS_8platform20posix_file_node_infoENS1_19file_open_mode_enumEE14destruct_valueERNS_17hash_map_iteratorIS2_S3_Lb0EEE, symObjAddr: 0x2784, symBinAddr: 0x9720, symSize: 0x30 }
  - { offsetInCU: 0x3767, offset: 0x8AA6, size: 0x8, addend: 0x0, symName: __ZN2bq17object_destructorINS_8platform20posix_file_node_infoEE8destructEPS2_, symObjAddr: 0x27B4, symBinAddr: 0x9750, symSize: 0x24 }
  - { offsetInCU: 0x3789, offset: 0x8AC8, size: 0x8, addend: 0x0, symName: __ZN2bq17object_destructorINS_8platform20posix_file_node_infoEE15destructor_implIS2_NS3_23trivial_destructor_typeEE8destructEPS2_, symObjAddr: 0x27D8, symBinAddr: 0x9774, symSize: 0x10 }
  - { offsetInCU: 0x37B0, offset: 0x8AEF, size: 0x8, addend: 0x0, symName: __ZN2bq17object_destructorINS_8platform19file_open_mode_enumEE8destructEPS2_, symObjAddr: 0x27E8, symBinAddr: 0x9784, symSize: 0x24 }
  - { offsetInCU: 0x37D2, offset: 0x8B11, size: 0x8, addend: 0x0, symName: __ZN2bq17object_destructorINS_8platform19file_open_mode_enumEE15destructor_implIS2_NS3_23trivial_destructor_typeEE8destructEPS2_, symObjAddr: 0x280C, symBinAddr: 0x97A8, symSize: 0x10 }
  - { offsetInCU: 0x37F4, offset: 0x8B33, size: 0x8, addend: 0x0, symName: __ZNK2bq8hash_mapINS_8platform20posix_file_node_infoENS1_19file_open_mode_enumEE19get_next_node_indexEj, symObjAddr: 0x281C, symBinAddr: 0x97B8, symSize: 0x68 }
  - { offsetInCU: 0x382A, offset: 0x8B69, size: 0x8, addend: 0x0, symName: __ZNK2bq8hash_mapINS_8platform20posix_file_node_infoENS1_19file_open_mode_enumEE22value_node_buffer_headINS4_10value_nodeEEixEj, symObjAddr: 0x2884, symBinAddr: 0x9820, symSize: 0x7C }
  - { offsetInCU: 0x385C, offset: 0x8B9B, size: 0x8, addend: 0x0, symName: __ZN2bq8hash_mapINS_8platform20posix_file_node_infoENS1_19file_open_mode_enumEED2Ev, symObjAddr: 0x2900, symBinAddr: 0x989C, symSize: 0x2C }
  - { offsetInCU: 0x3886, offset: 0x8BC5, size: 0x8, addend: 0x0, symName: __ZN2bq8hash_mapINS_8platform20posix_file_node_infoENS1_19file_open_mode_enumEE5resetEv, symObjAddr: 0x292C, symBinAddr: 0x98C8, symSize: 0xF8 }
  - { offsetInCU: 0x38CA, offset: 0x8C09, size: 0x8, addend: 0x0, symName: __ZN2bq8platform12scoped_mutexC2ERNS0_5mutexE, symObjAddr: 0x2A24, symBinAddr: 0x99C0, symSize: 0x3C }
  - { offsetInCU: 0x3900, offset: 0x8C3F, size: 0x8, addend: 0x0, symName: __ZNK2bq8hash_mapINS_8platform20posix_file_node_infoENS1_19file_open_mode_enumEE32find_index_and_bucket_idx_by_keyERKS2_, symObjAddr: 0x2A60, symBinAddr: 0x99FC, symSize: 0x114 }
  - { offsetInCU: 0x398E, offset: 0x8CCD, size: 0x8, addend: 0x0, symName: __ZNK2bq7kv_pairIjjE3keyEv, symObjAddr: 0x2B74, symBinAddr: 0x9B10, symSize: 0x14 }
  - { offsetInCU: 0x39B2, offset: 0x8CF1, size: 0x8, addend: 0x0, symName: __ZN2bq7kv_pairIjjE5valueEv, symObjAddr: 0x2B88, symBinAddr: 0x9B24, symSize: 0x18 }
  - { offsetInCU: 0x39D6, offset: 0x8D15, size: 0x8, addend: 0x0, symName: __ZNK2bq8hash_mapINS_8platform20posix_file_node_infoENS1_19file_open_mode_enumEE22value_node_buffer_headIjEixEj, symObjAddr: 0x2BA0, symBinAddr: 0x9B3C, symSize: 0x74 }
  - { offsetInCU: 0x3A08, offset: 0x8D47, size: 0x8, addend: 0x0, symName: __ZNK2bq8platform20posix_file_node_infoeqERKS1_, symObjAddr: 0x2C14, symBinAddr: 0x9BB0, symSize: 0x30 }
  - { offsetInCU: 0x3A3B, offset: 0x8D7A, size: 0x8, addend: 0x0, symName: __ZN2bq7kv_pairIjjEC1IRjS3_EEOT_OT0_, symObjAddr: 0x2C44, symBinAddr: 0x9BE0, symSize: 0x3C }
  - { offsetInCU: 0x3A91, offset: 0x8DD0, size: 0x8, addend: 0x0, symName: __ZN2bq7kv_pairIjjEC2IRjS3_EEOT_OT0_, symObjAddr: 0x2C80, symBinAddr: 0x9C1C, symSize: 0x58 }
  - { offsetInCU: 0x3AE7, offset: 0x8E26, size: 0x8, addend: 0x0, symName: __ZN2bq8hash_mapINS_8platform20posix_file_node_infoENS1_19file_open_mode_enumEE17alloc_node_by_keyERKS2_, symObjAddr: 0x2CEC, symBinAddr: 0x9C88, symSize: 0x304 }
  - { offsetInCU: 0x3BDF, offset: 0x8F1E, size: 0x8, addend: 0x0, symName: __ZN2bq8hash_mapINS_8platform20posix_file_node_infoENS1_19file_open_mode_enumEE15construct_valueIRS3_EEvRNS_17hash_map_iteratorIS2_S3_Lb0EEEOT_, symObjAddr: 0x2FF0, symBinAddr: 0x9F8C, symSize: 0x6C }
  - { offsetInCU: 0x3C2B, offset: 0x8F6A, size: 0x8, addend: 0x0, symName: __ZNK2bq8hash_mapINS_8platform20posix_file_node_infoENS1_19file_open_mode_enumEE10nodes_sizeEv, symObjAddr: 0x3070, symBinAddr: 0xA00C, symSize: 0x28 }
  - { offsetInCU: 0x3C51, offset: 0x8F90, size: 0x8, addend: 0x0, symName: __ZN2bq8hash_mapINS_8platform20posix_file_node_infoENS1_19file_open_mode_enumEE13construct_keyIRKS2_EEvRNS_17hash_map_iteratorIS2_S3_Lb0EEEOT_, symObjAddr: 0x3098, symBinAddr: 0xA034, symSize: 0x68 }
  - { offsetInCU: 0x3C9D, offset: 0x8FDC, size: 0x8, addend: 0x0, symName: __ZN2bq8platform12scoped_mutexD2Ev, symObjAddr: 0x3114, symBinAddr: 0xA0B0, symSize: 0x30 }
  - { offsetInCU: 0x3CC5, offset: 0x9004, size: 0x8, addend: 0x0, symName: __ZN2bq8hash_mapINS_8platform20posix_file_node_infoENS1_19file_open_mode_enumEE5eraseERKS2_, symObjAddr: 0x3144, symBinAddr: 0xA0E0, symSize: 0x90 }
  - { offsetInCU: 0x3D09, offset: 0x9048, size: 0x8, addend: 0x0, symName: __ZNK2bq17hash_map_iteratorINS_8platform20posix_file_node_infoENS1_19file_open_mode_enumELb0EEcvbEv, symObjAddr: 0x31D4, symBinAddr: 0xA170, symSize: 0x44 }
  - { offsetInCU: 0x3D2F, offset: 0x906E, size: 0x8, addend: 0x0, symName: __ZN2bq8hash_mapINS_8platform20posix_file_node_infoENS1_19file_open_mode_enumEE5eraseENS_17hash_map_iteratorIS2_S3_Lb0EEE, symObjAddr: 0x3218, symBinAddr: 0xA1B4, symSize: 0x228 }
  - { offsetInCU: 0x3DA0, offset: 0x90DF, size: 0x8, addend: 0x0, symName: __ZNK2bq8hash_mapINS_8platform20posix_file_node_infoENS1_19file_open_mode_enumEE20iterator_legal_checkERKNS_17hash_map_iteratorIS2_S3_Lb1EEE, symObjAddr: 0x3440, symBinAddr: 0xA3DC, symSize: 0x124 }
  - { offsetInCU: 0x3DDA, offset: 0x9119, size: 0x8, addend: 0x0, symName: __ZN2bq17hash_map_iteratorINS_8platform20posix_file_node_infoENS1_19file_open_mode_enumELb1EEC1ILb0EEERKNS0_IS2_S3_XT_EEE, symObjAddr: 0x3564, symBinAddr: 0xA500, symSize: 0x34 }
  - { offsetInCU: 0x3E1A, offset: 0x9159, size: 0x8, addend: 0x0, symName: __ZN2bq17hash_map_iteratorINS_8platform20posix_file_node_infoENS1_19file_open_mode_enumELb1EEC2ILb0EEERKNS0_IS2_S3_XT_EEE, symObjAddr: 0x3598, symBinAddr: 0xA534, symSize: 0x3C }
  - { offsetInCU: 0x3E5A, offset: 0x9199, size: 0x8, addend: 0x0, symName: __ZN2bq5arrayINS_11string_baseIcEELm0EEC2Ev, symObjAddr: 0x35D4, symBinAddr: 0xA570, symSize: 0x20 }
  - { offsetInCU: 0x3E84, offset: 0x91C3, size: 0x8, addend: 0x0, symName: __ZN2bq5arrayINS_11string_baseIcEELm0EED2Ev, symObjAddr: 0x35F4, symBinAddr: 0xA590, symSize: 0x2C }
  - { offsetInCU: 0x3EAE, offset: 0x91ED, size: 0x8, addend: 0x0, symName: __ZN2bq5arrayINS_11string_baseIcEELm0EE5resetIS2_EENS_9enable_ifIXntsr2bq6is_podIT_EE5valueEvE4typeEv, symObjAddr: 0x3620, symBinAddr: 0xA5BC, symSize: 0x6C }
  - { offsetInCU: 0x3EE3, offset: 0x9222, size: 0x8, addend: 0x0, symName: __ZN2bq23object_array_destructorINS_11string_baseIcEEE8destructEPS2_m, symObjAddr: 0x368C, symBinAddr: 0xA628, symSize: 0x2C }
  - { offsetInCU: 0x3F13, offset: 0x9252, size: 0x8, addend: 0x0, symName: __ZN2bq23object_array_destructorINS_11string_baseIcEEE15destructor_implIS2_NS3_27non_trivial_destructor_typeEE8destructEPS2_m, symObjAddr: 0x36B8, symBinAddr: 0xA654, symSize: 0x84 }
  - { offsetInCU: 0x3F5F, offset: 0x929E, size: 0x8, addend: 0x0, symName: __ZN2bq17object_destructorINS_11string_baseIcEEE8destructEPS2_, symObjAddr: 0x373C, symBinAddr: 0xA6D8, symSize: 0x24 }
  - { offsetInCU: 0x3F81, offset: 0x92C0, size: 0x8, addend: 0x0, symName: __ZN2bq17object_destructorINS_11string_baseIcEEE15destructor_implIS2_NS3_27non_trivial_destructor_typeEE8destructEPS2_, symObjAddr: 0x3760, symBinAddr: 0xA6FC, symSize: 0x3C }
  - { offsetInCU: 0x3FA3, offset: 0x92E2, size: 0x8, addend: 0x0, symName: __ZN2bq5arrayINS_11string_baseIcEELm0EE6insertIJRPKcEEEvNS_14array_iteratorIS2_S3_EEDpOT_, symObjAddr: 0x387C, symBinAddr: 0xA738, symSize: 0x288 }
  - { offsetInCU: 0x4031, offset: 0x9370, size: 0x8, addend: 0x0, symName: __ZN2bq5arrayINS_11string_baseIcEELm0EE3endEv, symObjAddr: 0x3B04, symBinAddr: 0xA9C0, symSize: 0x44 }
  - { offsetInCU: 0x4058, offset: 0x9397, size: 0x8, addend: 0x0, symName: __ZN2bq5arrayINS_11string_baseIcEELm0EE5beginEv, symObjAddr: 0x3BFC, symBinAddr: 0xAAB8, symSize: 0x34 }
  - { offsetInCU: 0x407F, offset: 0x93BE, size: 0x8, addend: 0x0, symName: __ZN2bq5arrayINS_11string_baseIcEELm0EE12set_capacityEmb, symObjAddr: 0x3D70, symBinAddr: 0xAC2C, symSize: 0x230 }
  - { offsetInCU: 0x40EE, offset: 0x942D, size: 0x8, addend: 0x0, symName: __ZN2bq14array_iteratorINS_11string_baseIcEENS_5arrayIS2_Lm0EEEEplEm, symObjAddr: 0x3FA0, symBinAddr: 0xAE5C, symSize: 0x44 }
  - { offsetInCU: 0x4130, offset: 0x946F, size: 0x8, addend: 0x0, symName: __ZNK2bq14array_iteratorINS_11string_baseIcEENS_5arrayIS2_Lm0EEEEcvPS2_Ev, symObjAddr: 0x3FE4, symBinAddr: 0xAEA0, symSize: 0x18 }
  - { offsetInCU: 0x4156, offset: 0x9495, size: 0x8, addend: 0x0, symName: __ZN2bq5arrayINS_11string_baseIcEELm0EE8destructENS_14array_iteratorIS2_S3_EE, symObjAddr: 0x413C, symBinAddr: 0xAFF8, symSize: 0x34 }
  - { offsetInCU: 0x418B, offset: 0x94CA, size: 0x8, addend: 0x0, symName: __ZN2bq5arrayINS_11string_baseIcEELm0EE9constructIJRPKcEEEvNS_14array_iteratorIS2_S3_EEDpOT_, symObjAddr: 0x4170, symBinAddr: 0xB02C, symSize: 0x78 }
  - { offsetInCU: 0x41ED, offset: 0x952C, size: 0x8, addend: 0x0, symName: __ZN2bq14array_iteratorINS_11string_baseIcEENS_5arrayIS2_Lm0EEEEC1IS2_EEPT_PKS4_, symObjAddr: 0x41E8, symBinAddr: 0xB0A4, symSize: 0x3C }
  - { offsetInCU: 0x423C, offset: 0x957B, size: 0x8, addend: 0x0, symName: __ZN2bq14array_iteratorINS_11string_baseIcEENS_5arrayIS2_Lm0EEEEC2IS2_EEPT_PKS4_, symObjAddr: 0x4224, symBinAddr: 0xB0E0, symSize: 0x70 }
  - { offsetInCU: 0x428B, offset: 0x95CA, size: 0x8, addend: 0x0, symName: __ZN2bq11string_baseIcEC1EOS1_, symObjAddr: 0x4450, symBinAddr: 0xB230, symSize: 0x34 }
  - { offsetInCU: 0x42C3, offset: 0x9602, size: 0x8, addend: 0x0, symName: __ZN2bq11string_baseIcEC2EOS1_, symObjAddr: 0x4484, symBinAddr: 0xB264, symSize: 0x40 }
  - { offsetInCU: 0x42FB, offset: 0x963A, size: 0x8, addend: 0x0, symName: __ZN2bq5arrayIcLm1EEC2EOS1_, symObjAddr: 0x44D8, symBinAddr: 0xB2B8, symSize: 0x6C }
  - { offsetInCU: 0x4334, offset: 0x9673, size: 0x8, addend: 0x0, symName: __ZNK2bq5arrayIcLm1EE8capacityEv, symObjAddr: 0x4544, symBinAddr: 0xB324, symSize: 0x18 }
  - { offsetInCU: 0x435B, offset: 0x969A, size: 0x8, addend: 0x0, symName: __ZN2bq14array_iteratorINS_11string_baseIcEENS_5arrayIS2_Lm0EEEEpLEi, symObjAddr: 0x455C, symBinAddr: 0xB33C, symSize: 0x30 }
  - { offsetInCU: 0x438F, offset: 0x96CE, size: 0x8, addend: 0x0, symName: __ZN2bq11string_baseIcEaSEOS1_, symObjAddr: 0x458C, symBinAddr: 0xB36C, symSize: 0x6C }
  - { offsetInCU: 0x43C3, offset: 0x9702, size: 0x8, addend: 0x0, symName: __ZNK2bq14array_iteratorINS_11string_baseIcEENS_5arrayIS2_Lm0EEEEptEv, symObjAddr: 0x45F8, symBinAddr: 0xB3D8, symSize: 0x18 }
  - { offsetInCU: 0x26, offset: 0x9A2A, size: 0x8, addend: 0x0, symName: __ZN2bq8platform18condition_variableC2Ev, symObjAddr: 0x0, symBinAddr: 0xB3F0, symSize: 0x84 }
  - { offsetInCU: 0x89A, offset: 0xA29E, size: 0x8, addend: 0x0, symName: __ZN2bq8platform18condition_variableC2Ev, symObjAddr: 0x0, symBinAddr: 0xB3F0, symSize: 0x84 }
  - { offsetInCU: 0x8C9, offset: 0xA2CD, size: 0x8, addend: 0x0, symName: __ZN2bq8platform31condition_variable_platform_defC1Ev, symObjAddr: 0xA0, symBinAddr: 0xB474, symSize: 0x2C }
  - { offsetInCU: 0x8F3, offset: 0xA2F7, size: 0x8, addend: 0x0, symName: __ZN2bq8platform18condition_variableC1Ev, symObjAddr: 0xCC, symBinAddr: 0xB4A0, symSize: 0x2C }
  - { offsetInCU: 0x91D, offset: 0xA321, size: 0x8, addend: 0x0, symName: __ZN2bq8platform18condition_variableD2Ev, symObjAddr: 0xF8, symBinAddr: 0xB4CC, symSize: 0x68 }
  - { offsetInCU: 0x947, offset: 0xA34B, size: 0x8, addend: 0x0, symName: __ZN2bq8platform18condition_variableD1Ev, symObjAddr: 0x160, symBinAddr: 0xB534, symSize: 0x2C }
  - { offsetInCU: 0x971, offset: 0xA375, size: 0x8, addend: 0x0, symName: __ZN2bq8platform18condition_variable8wait_forERNS0_5mutexEy, symObjAddr: 0x208, symBinAddr: 0xB560, symSize: 0x154 }
  - { offsetInCU: 0x9EB, offset: 0xA3EF, size: 0x8, addend: 0x0, symName: __ZN2bq8platform18condition_variable10notify_allEv, symObjAddr: 0x384, symBinAddr: 0xB6B4, symSize: 0x28 }
  - { offsetInCU: 0xA11, offset: 0xA415, size: 0x8, addend: 0x0, symName: __ZN2bq8platform31condition_variable_platform_defC2Ev, symObjAddr: 0x3AC, symBinAddr: 0xB6DC, symSize: 0x44 }
  - { offsetInCU: 0x26, offset: 0xA46A, size: 0x8, addend: 0x0, symName: __ZN2bq8platform5mutexC2Ev, symObjAddr: 0x0, symBinAddr: 0xB720, symSize: 0x15C }
  - { offsetInCU: 0x74A, offset: 0xAB8E, size: 0x8, addend: 0x0, symName: __ZN2bq8platform5mutexC2Ev, symObjAddr: 0x0, symBinAddr: 0xB720, symSize: 0x15C }
  - { offsetInCU: 0x79E, offset: 0xABE2, size: 0x8, addend: 0x0, symName: __ZN2bq8platform5mutexC1Ev, symObjAddr: 0x178, symBinAddr: 0xB87C, symSize: 0x2C }
  - { offsetInCU: 0x7C8, offset: 0xAC0C, size: 0x8, addend: 0x0, symName: __ZN2bq8platform5mutexC2Eb, symObjAddr: 0x1A4, symBinAddr: 0xB8A8, symSize: 0x188 }
  - { offsetInCU: 0x82A, offset: 0xAC6E, size: 0x8, addend: 0x0, symName: __ZN2bq8platform5mutexC1Eb, symObjAddr: 0x32C, symBinAddr: 0xBA30, symSize: 0x40 }
  - { offsetInCU: 0x862, offset: 0xACA6, size: 0x8, addend: 0x0, symName: __ZN2bq8platform5mutexD2Ev, symObjAddr: 0x36C, symBinAddr: 0xBA70, symSize: 0xA0 }
  - { offsetInCU: 0x8A8, offset: 0xACEC, size: 0x8, addend: 0x0, symName: __ZN2bq8platform5mutexD1Ev, symObjAddr: 0x40C, symBinAddr: 0xBB10, symSize: 0x2C }
  - { offsetInCU: 0x8D2, offset: 0xAD16, size: 0x8, addend: 0x0, symName: __ZN2bq8platform5mutex4lockEv, symObjAddr: 0x438, symBinAddr: 0xBB3C, symSize: 0x148 }
  - { offsetInCU: 0x906, offset: 0xAD4A, size: 0x8, addend: 0x0, symName: __ZN2bq8platform5mutex6unlockEv, symObjAddr: 0x798, symBinAddr: 0xBC84, symSize: 0x15C }
  - { offsetInCU: 0x93A, offset: 0xAD7E, size: 0x8, addend: 0x0, symName: __ZN2bq8platform5mutex19get_platform_handleEv, symObjAddr: 0x8F4, symBinAddr: 0xBDE0, symSize: 0x18 }
  - { offsetInCU: 0x26, offset: 0xAE13, size: 0x8, addend: 0x0, symName: __ZN2bq8platform9spin_lock5yieldEv, symObjAddr: 0x0, symBinAddr: 0xBDF8, symSize: 0x20 }
  - { offsetInCU: 0x1CA9, offset: 0xCA96, size: 0x8, addend: 0x0, symName: __ZN2bq8platform9spin_lock5yieldEv, symObjAddr: 0x0, symBinAddr: 0xBDF8, symSize: 0x20 }
  - { offsetInCU: 0x1D42, offset: 0xCB2F, size: 0x8, addend: 0x0, symName: __ZN2bq8platform18spin_lock_rw_crazy5yieldEv, symObjAddr: 0x20, symBinAddr: 0xBE18, symSize: 0x20 }
  - { offsetInCU: 0x26, offset: 0xCB85, size: 0x8, addend: 0x0, symName: __ZN2bq8platform6thread6cancelEv, symObjAddr: 0x0, symBinAddr: 0xBE38, symSize: 0x64C }
  - { offsetInCU: 0x1089, offset: 0xDBE8, size: 0x8, addend: 0x0, symName: __ZN2bq8platform6thread6cancelEv, symObjAddr: 0x0, symBinAddr: 0xBE38, symSize: 0x64C }
  - { offsetInCU: 0x136B, offset: 0xDECA, size: 0x8, addend: 0x0, symName: __ZN2bq8platform6thread12is_cancelledEv, symObjAddr: 0x64C, symBinAddr: 0xC484, symSize: 0xC0 }
  - { offsetInCU: 0x26, offset: 0xDF65, size: 0x8, addend: 0x0, symName: __ZN2bq8platform6threadC2ENS0_11thread_attrE, symObjAddr: 0x0, symBinAddr: 0xC544, symSize: 0xB8 }
  - { offsetInCU: 0x9B8, offset: 0xE8F7, size: 0x8, addend: 0x0, symName: __ZN2bq8platform6threadC2ENS0_11thread_attrE, symObjAddr: 0x0, symBinAddr: 0xC544, symSize: 0xB8 }
  - { offsetInCU: 0x9F0, offset: 0xE92F, size: 0x8, addend: 0x0, symName: __ZN2bq8platform6atomicINS0_18enum_thread_statusEEC1ERKS2_, symObjAddr: 0xE4, symBinAddr: 0xC5FC, symSize: 0x34 }
  - { offsetInCU: 0xA6E, offset: 0xE9AD, size: 0x8, addend: 0x0, symName: __ZN2bq8platform6thread15set_thread_nameERKNS_11string_baseIcEE, symObjAddr: 0x134, symBinAddr: 0xC630, symSize: 0x1E4 }
  - { offsetInCU: 0xAFB, offset: 0xEA3A, size: 0x8, addend: 0x0, symName: __ZN2bq11string_baseIcEaSERKS1_, symObjAddr: 0x318, symBinAddr: 0xC814, symSize: 0x90 }
  - { offsetInCU: 0xB2F, offset: 0xEA6E, size: 0x8, addend: 0x0, symName: __ZNK2bq11string_baseIcE6substrEmm, symObjAddr: 0x430, symBinAddr: 0xC8A4, symSize: 0x1E0 }
  - { offsetInCU: 0xC16, offset: 0xEB55, size: 0x8, addend: 0x0, symName: __ZN2bq8platform6thread5startEv, symObjAddr: 0x6A8, symBinAddr: 0xCA84, symSize: 0x82C }
  - { offsetInCU: 0xF2B, offset: 0xEE6A, size: 0x8, addend: 0x0, symName: __ZN2bq8platform25thread_platform_processor14thread_processEPv, symObjAddr: 0xED4, symBinAddr: 0xD2B0, symSize: 0x3C }
  - { offsetInCU: 0xF5B, offset: 0xEE9A, size: 0x8, addend: 0x0, symName: __ZN2bq8platform6thread4joinEv, symObjAddr: 0xF10, symBinAddr: 0xD2EC, symSize: 0xB0 }
  - { offsetInCU: 0xF8F, offset: 0xEECE, size: 0x8, addend: 0x0, symName: __ZN2bq8platform6thread5yieldEv, symObjAddr: 0xFC0, symBinAddr: 0xD39C, symSize: 0x18 }
  - { offsetInCU: 0xFA5, offset: 0xEEE4, size: 0x8, addend: 0x0, symName: __ZN2bq8platform6thread5sleepEy, symObjAddr: 0xFD8, symBinAddr: 0xD3B4, symSize: 0x60 }
  - { offsetInCU: 0xFD7, offset: 0xEF16, size: 0x8, addend: 0x0, symName: __ZN2bq8platform6thread9cpu_relaxEv, symObjAddr: 0x1038, symBinAddr: 0xD414, symSize: 0x8 }
  - { offsetInCU: 0xFEC, offset: 0xEF2B, size: 0x8, addend: 0x0, symName: __ZN2bq8platform6thread23get_current_thread_nameEv, symObjAddr: 0x1040, symBinAddr: 0xD41C, symSize: 0xCC }
  - { offsetInCU: 0x101E, offset: 0xEF5D, size: 0x8, addend: 0x0, symName: __ZN2bq8platform6thread21get_current_thread_idEv, symObjAddr: 0x1140, symBinAddr: 0xD4E8, symSize: 0x70 }
  - { offsetInCU: 0x1034, offset: 0xEF73, size: 0x8, addend: 0x0, symName: __ZN2bq8platform6threadD2Ev, symObjAddr: 0x11B0, symBinAddr: 0xD558, symSize: 0x50 }
  - { offsetInCU: 0x105E, offset: 0xEF9D, size: 0x8, addend: 0x0, symName: __ZN2bq8platform6threadD1Ev, symObjAddr: 0x1200, symBinAddr: 0xD5A8, symSize: 0x14 }
  - { offsetInCU: 0x1088, offset: 0xEFC7, size: 0x8, addend: 0x0, symName: __ZN2bq8platform6threadD0Ev, symObjAddr: 0x1214, symBinAddr: 0xD5BC, symSize: 0xC }
  - { offsetInCU: 0x10B2, offset: 0xEFF1, size: 0x8, addend: 0x0, symName: __ZN2bq8platform6thread17apply_thread_nameEv, symObjAddr: 0x1220, symBinAddr: 0xD5C8, symSize: 0x2C }
  - { offsetInCU: 0x112C, offset: 0xF06B, size: 0x8, addend: 0x0, symName: __ZN2bq8platform6thread12internal_runEv, symObjAddr: 0x124C, symBinAddr: 0xD5F4, symSize: 0x298 }
  - { offsetInCU: 0x137A, offset: 0xF2B9, size: 0x8, addend: 0x0, symName: __ZN2bq8platform6thread11on_finishedEv, symObjAddr: 0x14E4, symBinAddr: 0xD88C, symSize: 0x10 }
  - { offsetInCU: 0x139E, offset: 0xF2DD, size: 0x8, addend: 0x0, symName: __ZN2bq8platform6atomicINS0_18enum_thread_statusEEC2ERKS2_, symObjAddr: 0x15F4, symBinAddr: 0xD89C, symSize: 0x34 }
  - { offsetInCU: 0x13D4, offset: 0xF313, size: 0x8, addend: 0x0, symName: __ZN2bq8platform12_atomic_baseINS0_18enum_thread_statusELm1EEC2ERKS2_, symObjAddr: 0x1628, symBinAddr: 0xD8D0, symSize: 0x24 }
  - { offsetInCU: 0x140A, offset: 0xF349, size: 0x8, addend: 0x0, symName: __ZN2bq14array_iteratorIKcNS_5arrayIcLm1EEEEplEm, symObjAddr: 0x21E0, symBinAddr: 0xD8F4, symSize: 0x44 }
  - { offsetInCU: 0x144C, offset: 0xF38B, size: 0x8, addend: 0x0, symName: __ZN2bq14array_iteratorIKcNS_5arrayIcLm1EEEEpLEi, symObjAddr: 0x2224, symBinAddr: 0xD938, symSize: 0x28 }
  - { offsetInCU: 0x26, offset: 0xF445, size: 0x8, addend: 0x0, symName: __ZN2bq12file_managerC2Ev, symObjAddr: 0x0, symBinAddr: 0xD960, symSize: 0xC4 }
  - { offsetInCU: 0x3E, offset: 0xF45D, size: 0x8, addend: 0x0, symName: __ZN2bq12file_manager18static_inst_cache_E, symObjAddr: 0x22020, symBinAddr: 0x69B48, symSize: 0x0 }
  - { offsetInCU: 0x19EA, offset: 0x10E09, size: 0x8, addend: 0x0, symName: __ZN2bqneINS_11string_baseIcEES2_NS_5arrayIS2_Lm0EEES4_EEbRKNS_14array_iteratorIT_T1_EERKNS5_IT0_T2_EE, symObjAddr: 0x1F98, symBinAddr: 0xF178, symSize: 0xA0 }
  - { offsetInCU: 0x1A48, offset: 0x10E67, size: 0x8, addend: 0x0, symName: __ZN2bqplIcEENS_11string_baseIT_EEPKNS3_9char_typeERKS3_, symObjAddr: 0x21D4, symBinAddr: 0xF3B4, symSize: 0xDC }
  - { offsetInCU: 0x1A9E, offset: 0x10EBD, size: 0x8, addend: 0x0, symName: __ZN2bqplIcEENS_11string_baseIT_EEOS3_RKS3_, symObjAddr: 0x2D0C, symBinAddr: 0xF9D4, symSize: 0x88 }
  - { offsetInCU: 0x1BE8, offset: 0x11007, size: 0x8, addend: 0x0, symName: __ZN2bq9___strstrIcEEPKT_S3_S3_, symObjAddr: 0x6834, symBinAddr: 0x123E8, symSize: 0x68 }
  - { offsetInCU: 0x1C2B, offset: 0x1104A, size: 0x8, addend: 0x0, symName: __ZN2bq7forwardIRNS_11string_baseIcEEEEOT_RNS_16remove_referenceIS4_E4typeE, symObjAddr: 0x7470, symBinAddr: 0x1285C, symSize: 0x14 }
  - { offsetInCU: 0x1C60, offset: 0x1107F, size: 0x8, addend: 0x0, symName: __ZN2bq4moveIRNS_12file_manager15file_descriptorEEEONS_16remove_referenceIT_E4typeEOS5_, symObjAddr: 0x7BF8, symBinAddr: 0x12C38, symSize: 0x14 }
  - { offsetInCU: 0x1C95, offset: 0x110B4, size: 0x8, addend: 0x0, symName: __ZN2bq7forwardINS_12file_manager15file_descriptorEEEOT_RNS_16remove_referenceIS3_E4typeE, symObjAddr: 0x7ED8, symBinAddr: 0x12F18, symSize: 0x14 }
  - { offsetInCU: 0x1CCA, offset: 0x110E9, size: 0x8, addend: 0x0, symName: __ZN2bqgeINS_12file_manager15file_descriptorES2_NS_5arrayIS2_Lm0EEES4_EEbRKNS_14array_iteratorIT_T1_EERKNS5_IT0_T2_EE, symObjAddr: 0x7EEC, symBinAddr: 0x12F2C, symSize: 0xA0 }
  - { offsetInCU: 0x1D28, offset: 0x11147, size: 0x8, addend: 0x0, symName: __ZN2bqleINS_12file_manager15file_descriptorES2_NS_5arrayIS2_Lm0EEES4_EEbRKNS_14array_iteratorIT_T1_EERKNS5_IT0_T2_EE, symObjAddr: 0x7FC0, symBinAddr: 0x13000, symSize: 0xA0 }
  - { offsetInCU: 0x1D86, offset: 0x111A5, size: 0x8, addend: 0x0, symName: __ZN2bqmiINS_12file_manager15file_descriptorES2_NS_5arrayIS2_Lm0EEES4_EENS_14array_iteratorIT_T1_E9diff_typeERKS8_RKNS5_IT0_T2_EE, symObjAddr: 0x8060, symBinAddr: 0x130A0, symSize: 0xA0 }
  - { offsetInCU: 0x1DE4, offset: 0x11203, size: 0x8, addend: 0x0, symName: __ZN2bq19_inner_forward_moveINS_12file_manager15file_descriptorEEENS_9enable_ifIXntaasr2bq31is_trivially_copy_constructibleIT_EE5valuesr2bq31is_trivially_move_constructibleIS4_EE5valueEvE4typeEPS4_S7_m, symObjAddr: 0x838C, symBinAddr: 0x133CC, symSize: 0x140 }
  - { offsetInCU: 0x1E9F, offset: 0x112BE, size: 0x8, addend: 0x0, symName: __ZN2bq15_inner_mem_copyINS_12file_manager15file_descriptorEEENS_9enable_ifIXntaasr2bq31is_trivially_copy_constructibleIT_EE5valuesr2bq31is_trivially_move_constructibleIS4_EE5valueEvE4typeEPS4_S7_m, symObjAddr: 0x8620, symBinAddr: 0x13660, symSize: 0xCC }
  - { offsetInCU: 0x1F11, offset: 0x11330, size: 0x8, addend: 0x0, symName: __ZN2bqltIccNS_5arrayIcLm1EEES2_EEbRKNS_14array_iteratorIT_T1_EERKNS3_IT0_T2_EE, symObjAddr: 0x8A2C, symBinAddr: 0x13A28, symSize: 0xA0 }
  - { offsetInCU: 0x1F6F, offset: 0x1138E, size: 0x8, addend: 0x0, symName: __ZN2bq20_inner_backward_moveIcEENS_9enable_ifIXaasr2bq28is_trivially_move_assignableIT_EE5valuesr2bq28is_trivially_copy_assignableIS2_EE5valueEvE4typeEPS2_S5_m, symObjAddr: 0x8ACC, symBinAddr: 0x13AC8, symSize: 0x3C }
  - { offsetInCU: 0x21CD, offset: 0x115EC, size: 0x8, addend: 0x0, symName: __ZN2bq12file_manager22scoped_static_instanceEv, symObjAddr: 0x3DC, symBinAddr: 0xDCCC, symSize: 0x94 }
  - { offsetInCU: 0x21F1, offset: 0x11610, size: 0x8, addend: 0x0, symName: __ZZN2bq12file_manager22scoped_static_instanceEvE9instance_, symObjAddr: 0x22030, symBinAddr: 0x68950, symSize: 0x0 }
  - { offsetInCU: 0x277C, offset: 0x11B9B, size: 0x8, addend: 0x0, symName: __ZN2bq12file_managerC2Ev, symObjAddr: 0x0, symBinAddr: 0xD960, symSize: 0xC4 }
  - { offsetInCU: 0x27A6, offset: 0x11BC5, size: 0x8, addend: 0x0, symName: __ZN2bq5arrayINS_12file_manager15file_descriptorELm0EEC1Ev, symObjAddr: 0xC4, symBinAddr: 0xDA24, symSize: 0x2C }
  - { offsetInCU: 0x27D0, offset: 0x11BEF, size: 0x8, addend: 0x0, symName: __ZN2bq12file_manager12get_base_dirEb, symObjAddr: 0xF0, symBinAddr: 0xDA50, symSize: 0x30 }
  - { offsetInCU: 0x27F4, offset: 0x11C13, size: 0x8, addend: 0x0, symName: __ZN2bq12file_managerC1Ev, symObjAddr: 0x190, symBinAddr: 0xDA80, symSize: 0x2C }
  - { offsetInCU: 0x281E, offset: 0x11C3D, size: 0x8, addend: 0x0, symName: __ZN2bq12file_managerD2Ev, symObjAddr: 0x1BC, symBinAddr: 0xDAAC, symSize: 0x54 }
  - { offsetInCU: 0x2848, offset: 0x11C67, size: 0x8, addend: 0x0, symName: __ZN2bq12file_manager22flush_all_opened_filesEv, symObjAddr: 0x210, symBinAddr: 0xDB00, symSize: 0x134 }
  - { offsetInCU: 0x28E4, offset: 0x11D03, size: 0x8, addend: 0x0, symName: __ZN2bq5arrayINS_12file_manager15file_descriptorELm0EED1Ev, symObjAddr: 0x344, symBinAddr: 0xDC34, symSize: 0x2C }
  - { offsetInCU: 0x290E, offset: 0x11D2D, size: 0x8, addend: 0x0, symName: __ZN2bq12file_managerD1Ev, symObjAddr: 0x370, symBinAddr: 0xDC60, symSize: 0x2C }
  - { offsetInCU: 0x2938, offset: 0x11D57, size: 0x8, addend: 0x0, symName: __ZN2bq12file_manager8instanceEv, symObjAddr: 0x39C, symBinAddr: 0xDC8C, symSize: 0x40 }
  - { offsetInCU: 0x294E, offset: 0x11D6D, size: 0x8, addend: 0x0, symName: __ZN2bq12file_manager44trans_process_relative_path_to_absolute_pathERKNS_11string_baseIcEEb, symObjAddr: 0x470, symBinAddr: 0xDD60, symSize: 0xE4 }
  - { offsetInCU: 0x298F, offset: 0x11DAE, size: 0x8, addend: 0x0, symName: __ZN2bq11string_baseIcEC1ERKS1_, symObjAddr: 0x554, symBinAddr: 0xDE44, symSize: 0x34 }
  - { offsetInCU: 0x29C7, offset: 0x11DE6, size: 0x8, addend: 0x0, symName: __ZN2bq12file_manager11is_absoluteERKNS_11string_baseIcEE, symObjAddr: 0x588, symBinAddr: 0xDE78, symSize: 0x98 }
  - { offsetInCU: 0x29EB, offset: 0x11E0A, size: 0x8, addend: 0x0, symName: __ZN2bq12file_manager12combine_pathERKNS_11string_baseIcEES4_, symObjAddr: 0x620, symBinAddr: 0xDF10, symSize: 0x3FC }
  - { offsetInCU: 0x2B12, offset: 0x11F31, size: 0x8, addend: 0x0, symName: __ZN2bq12file_manager18get_lexically_pathERKNS_11string_baseIcEE, symObjAddr: 0xAB4, symBinAddr: 0xE30C, symSize: 0x3D0 }
  - { offsetInCU: 0x2B9C, offset: 0x11FBB, size: 0x8, addend: 0x0, symName: __ZNK2bq11string_baseIcE7replaceERKS1_S3_, symObjAddr: 0xFB4, symBinAddr: 0xE6DC, symSize: 0x28C }
  - { offsetInCU: 0x2C53, offset: 0x12072, size: 0x8, addend: 0x0, symName: __ZNK2bq12file_manager15is_handle_validERKNS_11file_handleE, symObjAddr: 0x1274, symBinAddr: 0xE968, symSize: 0x100 }
  - { offsetInCU: 0x2CEC, offset: 0x1210B, size: 0x8, addend: 0x0, symName: __ZNK2bq12file_manager35get_file_descriptor_index_by_handleERKNS_11file_handleE, symObjAddr: 0x1374, symBinAddr: 0xEA68, symSize: 0xE8 }
  - { offsetInCU: 0x2D31, offset: 0x12150, size: 0x8, addend: 0x0, symName: __ZN2bq12file_manager16create_directoryERKNS_11string_baseIcEE, symObjAddr: 0x145C, symBinAddr: 0xEB50, symSize: 0xC4 }
  - { offsetInCU: 0x2D63, offset: 0x12182, size: 0x8, addend: 0x0, symName: __ZN2bq12file_manager23get_directory_from_pathERKNS_11string_baseIcEE, symObjAddr: 0x1520, symBinAddr: 0xEC14, symSize: 0x160 }
  - { offsetInCU: 0x2DC2, offset: 0x121E1, size: 0x8, addend: 0x0, symName: __ZNK2bq11string_baseIcE9find_lastERKS1_, symObjAddr: 0x1680, symBinAddr: 0xED74, symSize: 0x134 }
  - { offsetInCU: 0x2E15, offset: 0x12234, size: 0x8, addend: 0x0, symName: __ZN2bq12file_manager23get_file_name_from_pathERKNS_11string_baseIcEE, symObjAddr: 0x19E4, symBinAddr: 0xEEA8, symSize: 0x13C }
  - { offsetInCU: 0x2E64, offset: 0x12283, size: 0x8, addend: 0x0, symName: __ZNK2bq11string_baseIcE5splitERKS1_, symObjAddr: 0x1D8C, symBinAddr: 0xEFE4, symSize: 0x17C }
  - { offsetInCU: 0x2F10, offset: 0x1232F, size: 0x8, addend: 0x0, symName: __ZNK2bq5arrayINS_11string_baseIcEELm0EE4sizeEv, symObjAddr: 0x1F08, symBinAddr: 0xF160, symSize: 0x18 }
  - { offsetInCU: 0x2F37, offset: 0x12356, size: 0x8, addend: 0x0, symName: __ZNK2bq14array_iteratorINS_11string_baseIcEENS_5arrayIS2_Lm0EEEEdeEv, symObjAddr: 0x2038, symBinAddr: 0xF218, symSize: 0x18 }
  - { offsetInCU: 0x2F5D, offset: 0x1237C, size: 0x8, addend: 0x0, symName: __ZN2bq11string_baseIcEpLERKS1_, symObjAddr: 0x2050, symBinAddr: 0xF230, symSize: 0xF0 }
  - { offsetInCU: 0x2FBB, offset: 0x123DA, size: 0x8, addend: 0x0, symName: __ZN2bq14array_iteratorINS_11string_baseIcEENS_5arrayIS2_Lm0EEEEppEv, symObjAddr: 0x2140, symBinAddr: 0xF320, symSize: 0x20 }
  - { offsetInCU: 0x2FE1, offset: 0x12400, size: 0x8, addend: 0x0, symName: __ZNK2bq5arrayIcLm1EEixEm, symObjAddr: 0x2160, symBinAddr: 0xF340, symSize: 0x74 }
  - { offsetInCU: 0x3016, offset: 0x12435, size: 0x8, addend: 0x0, symName: __ZN2bq5arrayINS_11string_baseIcEELm0EEixEm, symObjAddr: 0x2538, symBinAddr: 0xF490, symSize: 0x7C }
  - { offsetInCU: 0x304B, offset: 0x1246A, size: 0x8, addend: 0x0, symName: __ZNK2bq11string_baseIcE4trimEv, symObjAddr: 0x25B4, symBinAddr: 0xF50C, symSize: 0x14C }
  - { offsetInCU: 0x3090, offset: 0x124AF, size: 0x8, addend: 0x0, symName: __ZNK2bq11string_baseIcEeqEPKc, symObjAddr: 0x2700, symBinAddr: 0xF658, symSize: 0xBC }
  - { offsetInCU: 0x30D4, offset: 0x124F3, size: 0x8, addend: 0x0, symName: __ZNK2bq11string_baseIcEneEPKc, symObjAddr: 0x27BC, symBinAddr: 0xF714, symSize: 0x34 }
  - { offsetInCU: 0x3109, offset: 0x12528, size: 0x8, addend: 0x0, symName: __ZN2bq5arrayINS_11string_baseIcEELm0EE8pop_backEv, symObjAddr: 0x27F0, symBinAddr: 0xF748, symSize: 0x8C }
  - { offsetInCU: 0x3130, offset: 0x1254F, size: 0x8, addend: 0x0, symName: __ZN2bq5arrayINS_11string_baseIcEELm0EE9push_backIJRS2_EEEmDpOT_, symObjAddr: 0x287C, symBinAddr: 0xF7D4, symSize: 0x58 }
  - { offsetInCU: 0x3170, offset: 0x1258F, size: 0x8, addend: 0x0, symName: __ZN2bq12file_manager7is_fileERKNS_11string_baseIcEE, symObjAddr: 0x2A10, symBinAddr: 0xF82C, symSize: 0x50 }
  - { offsetInCU: 0x31A2, offset: 0x125C1, size: 0x8, addend: 0x0, symName: __ZN2bq12file_manager18remove_file_or_dirERKNS_11string_baseIcEE, symObjAddr: 0x2A60, symBinAddr: 0xF87C, symSize: 0x10C }
  - { offsetInCU: 0x31E2, offset: 0x12601, size: 0x8, addend: 0x0, symName: __ZN2bq12file_manager27get_sub_dirs_and_files_nameERKNS_11string_baseIcEE, symObjAddr: 0x2B6C, symBinAddr: 0xF988, symSize: 0x4C }
  - { offsetInCU: 0x3218, offset: 0x12637, size: 0x8, addend: 0x0, symName: __ZNK2bq11string_baseIcEplEPKc, symObjAddr: 0x2D94, symBinAddr: 0xFA5C, symSize: 0x184 }
  - { offsetInCU: 0x3285, offset: 0x126A4, size: 0x8, addend: 0x0, symName: __ZN2bq5arrayINS_11string_baseIcEELm0EE9push_backIJS2_EEEmDpOT_, symObjAddr: 0x2F18, symBinAddr: 0xFBE0, symSize: 0x58 }
  - { offsetInCU: 0x32C5, offset: 0x126E4, size: 0x8, addend: 0x0, symName: __ZN2bq12file_manager31get_file_last_modified_epoch_msERKNS_11string_baseIcEE, symObjAddr: 0x2F70, symBinAddr: 0xFC38, symSize: 0xC8 }
  - { offsetInCU: 0x3361, offset: 0x12780, size: 0x8, addend: 0x0, symName: __ZN2bq12file_manager9open_fileERKNS_11string_baseIcEENS_19file_open_mode_enumE, symObjAddr: 0x3134, symBinAddr: 0xFD00, symSize: 0x4D4 }
  - { offsetInCU: 0x351E, offset: 0x1293D, size: 0x8, addend: 0x0, symName: __ZNK2bq12file_manager13get_file_sizeERKNS_11file_handleE, symObjAddr: 0x3608, symBinAddr: 0x101D4, symSize: 0x1B0 }
  - { offsetInCU: 0x35AE, offset: 0x129CD, size: 0x8, addend: 0x0, symName: __ZN2bq11file_handleD1Ev, symObjAddr: 0x3808, symBinAddr: 0x103D4, symSize: 0x2C }
  - { offsetInCU: 0x35D9, offset: 0x129F8, size: 0x8, addend: 0x0, symName: __ZNK2bq11file_handle8is_validEv, symObjAddr: 0x3900, symBinAddr: 0x10400, symSize: 0x34 }
  - { offsetInCU: 0x3600, offset: 0x12A1F, size: 0x8, addend: 0x0, symName: __ZN2bq12file_manager15append_all_textERKNS_11string_baseIcEES2_, symObjAddr: 0x3AB0, symBinAddr: 0x10434, symSize: 0x108 }
  - { offsetInCU: 0x367C, offset: 0x12A9B, size: 0x8, addend: 0x0, symName: __ZN2bq12file_manager10write_fileERKNS_11file_handleEPKvmNS0_11seek_optionEx, symObjAddr: 0x3BB8, symBinAddr: 0x1053C, symSize: 0x208 }
  - { offsetInCU: 0x376A, offset: 0x12B89, size: 0x8, addend: 0x0, symName: __ZN2bq12file_manager10flush_fileERKNS_11file_handleE, symObjAddr: 0x3E0C, symBinAddr: 0x10744, symSize: 0xB8 }
  - { offsetInCU: 0x37CD, offset: 0x12BEC, size: 0x8, addend: 0x0, symName: __ZN2bq12file_manager14write_all_textERKNS_11string_baseIcEES2_, symObjAddr: 0x3EC4, symBinAddr: 0x107FC, symSize: 0x11C }
  - { offsetInCU: 0x3849, offset: 0x12C68, size: 0x8, addend: 0x0, symName: __ZN2bq12file_manager13truncate_fileERKNS_11file_handleEm, symObjAddr: 0x3FE0, symBinAddr: 0x10918, symSize: 0x13C }
  - { offsetInCU: 0x3924, offset: 0x12D43, size: 0x8, addend: 0x0, symName: __ZN2bq12file_manager29get_and_clear_last_file_errorEv, symObjAddr: 0x411C, symBinAddr: 0x10A54, symSize: 0x3C }
  - { offsetInCU: 0x3950, offset: 0x12D6F, size: 0x8, addend: 0x0, symName: __ZNK2bq5arrayINS_12file_manager15file_descriptorELm0EE4sizeEv, symObjAddr: 0x41B8, symBinAddr: 0x10A90, symSize: 0x18 }
  - { offsetInCU: 0x3977, offset: 0x12D96, size: 0x8, addend: 0x0, symName: __ZN2bq5arrayINS_12file_manager15file_descriptorELm0EEixEm, symObjAddr: 0x41D0, symBinAddr: 0x10AA8, symSize: 0x7C }
  - { offsetInCU: 0x39AC, offset: 0x12DCB, size: 0x8, addend: 0x0, symName: __ZNK2bq12file_manager15file_descriptor8is_emptyEv, symObjAddr: 0x424C, symBinAddr: 0x10B24, symSize: 0x78 }
  - { offsetInCU: 0x39F1, offset: 0x12E10, size: 0x8, addend: 0x0, symName: __ZN2bq5arrayINS_12file_manager15file_descriptorELm0EE12emplace_backIJS2_EEEmDpOT_, symObjAddr: 0x4354, symBinAddr: 0x10B9C, symSize: 0x3C }
  - { offsetInCU: 0x3A31, offset: 0x12E50, size: 0x8, addend: 0x0, symName: __ZN2bq12file_manager15file_descriptorC1Ev, symObjAddr: 0x4390, symBinAddr: 0x10BD8, symSize: 0x2C }
  - { offsetInCU: 0x3A5C, offset: 0x12E7B, size: 0x8, addend: 0x0, symName: __ZN2bq12file_manager15file_descriptorD1Ev, symObjAddr: 0x43BC, symBinAddr: 0x10C04, symSize: 0x2C }
  - { offsetInCU: 0x3AE4, offset: 0x12F03, size: 0x8, addend: 0x0, symName: __ZN2bq12file_manager15file_descriptor7inc_refEv, symObjAddr: 0x43E8, symBinAddr: 0x10C30, symSize: 0x26C }
  - { offsetInCU: 0x3B6D, offset: 0x12F8C, size: 0x8, addend: 0x0, symName: __ZN2bq12file_manager4seekERKNS_11file_handleENS0_11seek_optionEx, symObjAddr: 0x4680, symBinAddr: 0x10E9C, symSize: 0x120 }
  - { offsetInCU: 0x3BEE, offset: 0x1300D, size: 0x8, addend: 0x0, symName: __ZN2bq12file_manager9read_fileERKNS_11file_handleEPvmNS0_11seek_optionEx, symObjAddr: 0x47A0, symBinAddr: 0x10FBC, symSize: 0x1DC }
  - { offsetInCU: 0x3CDB, offset: 0x130FA, size: 0x8, addend: 0x0, symName: __ZN2bq5arrayIcLm1EE18fill_uninitializedIcEENS_9enable_ifIXsr2bq6is_podIT_EE5valueEvE4typeEm, symObjAddr: 0x4A9C, symBinAddr: 0x11198, symSize: 0xC4 }
  - { offsetInCU: 0x3D19, offset: 0x13138, size: 0x8, addend: 0x0, symName: __ZN2bq5arrayIcLm1EE5eraseENS_14array_iteratorIcS1_EEm, symObjAddr: 0x4B60, symBinAddr: 0x1125C, symSize: 0x25C }
  - { offsetInCU: 0x3D7C, offset: 0x1319B, size: 0x8, addend: 0x0, symName: __ZN2bq12file_manager10close_fileERNS_11file_handleE, symObjAddr: 0x4E00, symBinAddr: 0x114B8, symSize: 0x280 }
  - { offsetInCU: 0x3E88, offset: 0x132A7, size: 0x8, addend: 0x0, symName: __ZN2bq12file_manager15file_descriptor7dec_refEv, symObjAddr: 0x5080, symBinAddr: 0x11738, symSize: 0x43C }
  - { offsetInCU: 0x3FAC, offset: 0x133CB, size: 0x8, addend: 0x0, symName: __ZNK2bq5arrayINS_12file_manager15file_descriptorELm0EEixEm, symObjAddr: 0x54F4, symBinAddr: 0x11B74, symSize: 0x7C }
  - { offsetInCU: 0x3FE1, offset: 0x13400, size: 0x8, addend: 0x0, symName: __ZN2bq12file_manager7inc_refERKNS_11file_handleE, symObjAddr: 0x5570, symBinAddr: 0x11BF0, symSize: 0x90 }
  - { offsetInCU: 0x40C1, offset: 0x134E0, size: 0x8, addend: 0x0, symName: __ZN2bq12file_manager15file_descriptor5clearEv, symObjAddr: 0x5600, symBinAddr: 0x11C80, symSize: 0x120 }
  - { offsetInCU: 0x41BF, offset: 0x135DE, size: 0x8, addend: 0x0, symName: __ZN2bq12file_manager15file_descriptorC2Ev, symObjAddr: 0x5798, symBinAddr: 0x11DA0, symSize: 0x118 }
  - { offsetInCU: 0x42C1, offset: 0x136E0, size: 0x8, addend: 0x0, symName: __ZN2bq8platform6atomicIiEC1Ev, symObjAddr: 0x58B0, symBinAddr: 0x11EB8, symSize: 0x2C }
  - { offsetInCU: 0x42E9, offset: 0x13708, size: 0x8, addend: 0x0, symName: __ZN2bq11file_handleD2Ev, symObjAddr: 0x5A50, symBinAddr: 0x11EE4, symSize: 0x40 }
  - { offsetInCU: 0x4314, offset: 0x13733, size: 0x8, addend: 0x0, symName: __ZN2bq11file_handleaSERKS0_, symObjAddr: 0x5A90, symBinAddr: 0x11F24, symSize: 0x6C }
  - { offsetInCU: 0x434A, offset: 0x13769, size: 0x8, addend: 0x0, symName: __ZN2bq11file_handleaSEOS0_, symObjAddr: 0x5AFC, symBinAddr: 0x11F90, symSize: 0x84 }
  - { offsetInCU: 0x4380, offset: 0x1379F, size: 0x8, addend: 0x0, symName: __ZN2bq11file_handle7invalidEv, symObjAddr: 0x5B80, symBinAddr: 0x12014, symSize: 0x38 }
  - { offsetInCU: 0x43A7, offset: 0x137C6, size: 0x8, addend: 0x0, symName: __ZN2bq12file_manager15file_descriptorD2Ev, symObjAddr: 0x5CE0, symBinAddr: 0x1204C, symSize: 0x30 }
  - { offsetInCU: 0x43D1, offset: 0x137F0, size: 0x8, addend: 0x0, symName: __ZN2bq5arrayINS_12file_manager15file_descriptorELm0EEC2Ev, symObjAddr: 0x5D8C, symBinAddr: 0x1207C, symSize: 0x20 }
  - { offsetInCU: 0x43FB, offset: 0x1381A, size: 0x8, addend: 0x0, symName: __ZN2bq5arrayINS_12file_manager15file_descriptorELm0EED2Ev, symObjAddr: 0x5DAC, symBinAddr: 0x1209C, symSize: 0x2C }
  - { offsetInCU: 0x4425, offset: 0x13844, size: 0x8, addend: 0x0, symName: __ZN2bq5arrayINS_12file_manager15file_descriptorELm0EE5resetIS2_EENS_9enable_ifIXntsr2bq6is_podIT_EE5valueEvE4typeEv, symObjAddr: 0x5DD8, symBinAddr: 0x120C8, symSize: 0x6C }
  - { offsetInCU: 0x445A, offset: 0x13879, size: 0x8, addend: 0x0, symName: __ZN2bq23object_array_destructorINS_12file_manager15file_descriptorEE8destructEPS2_m, symObjAddr: 0x5E44, symBinAddr: 0x12134, symSize: 0x2C }
  - { offsetInCU: 0x448A, offset: 0x138A9, size: 0x8, addend: 0x0, symName: __ZN2bq23object_array_destructorINS_12file_manager15file_descriptorEE15destructor_implIS2_NS3_27non_trivial_destructor_typeEE8destructEPS2_m, symObjAddr: 0x5E70, symBinAddr: 0x12160, symSize: 0x84 }
  - { offsetInCU: 0x44D6, offset: 0x138F5, size: 0x8, addend: 0x0, symName: __ZN2bq17object_destructorINS_12file_manager15file_descriptorEE8destructEPS2_, symObjAddr: 0x5EF4, symBinAddr: 0x121E4, symSize: 0x24 }
  - { offsetInCU: 0x44F8, offset: 0x13917, size: 0x8, addend: 0x0, symName: __ZN2bq17object_destructorINS_12file_manager15file_descriptorEE15destructor_implIS2_NS3_27non_trivial_destructor_typeEE8destructEPS2_, symObjAddr: 0x5F18, symBinAddr: 0x12208, symSize: 0x3C }
  - { offsetInCU: 0x451F, offset: 0x1393E, size: 0x8, addend: 0x0, symName: __ZN2bq11string_baseIcEC2ERKS1_, symObjAddr: 0x6064, symBinAddr: 0x12244, symSize: 0x34 }
  - { offsetInCU: 0x4557, offset: 0x13976, size: 0x8, addend: 0x0, symName: __ZN2bq5arrayIcLm1EEC2ERKS1_, symObjAddr: 0x6098, symBinAddr: 0x12278, symSize: 0x9C }
  - { offsetInCU: 0x458F, offset: 0x139AE, size: 0x8, addend: 0x0, symName: __ZNK2bq11string_baseIcE4findERKS1_m, symObjAddr: 0x671C, symBinAddr: 0x12314, symSize: 0xD4 }
  - { offsetInCU: 0x45E1, offset: 0x13A00, size: 0x8, addend: 0x0, symName: __ZN2bq5arrayINS_11string_baseIcEELm0EE12emplace_backIJRS2_EEEmDpOT_, symObjAddr: 0x6BC8, symBinAddr: 0x12450, symSize: 0x3C }
  - { offsetInCU: 0x462B, offset: 0x13A4A, size: 0x8, addend: 0x0, symName: __Z7isspacei, symObjAddr: 0x7054, symBinAddr: 0x1248C, symSize: 0x28 }
  - { offsetInCU: 0x4659, offset: 0x13A78, size: 0x8, addend: 0x0, symName: __Z8__istypeim, symObjAddr: 0x707C, symBinAddr: 0x124B4, symSize: 0x8C }
  - { offsetInCU: 0x4693, offset: 0x13AB2, size: 0x8, addend: 0x0, symName: __Z7isasciii, symObjAddr: 0x7108, symBinAddr: 0x12540, symSize: 0x24 }
  - { offsetInCU: 0x46BF, offset: 0x13ADE, size: 0x8, addend: 0x0, symName: __ZN2bq14array_iteratorINS_11string_baseIcEENS_5arrayIS2_Lm0EEEEmiEi, symObjAddr: 0x7160, symBinAddr: 0x12564, symSize: 0x40 }
  - { offsetInCU: 0x4701, offset: 0x13B20, size: 0x8, addend: 0x0, symName: __ZN2bq14array_iteratorINS_11string_baseIcEENS_5arrayIS2_Lm0EEEEmIEi, symObjAddr: 0x71B8, symBinAddr: 0x125A4, symSize: 0x30 }
  - { offsetInCU: 0x4735, offset: 0x13B54, size: 0x8, addend: 0x0, symName: __ZN2bq5arrayINS_11string_baseIcEELm0EE6insertIJRS2_EEEvNS_14array_iteratorIS2_S3_EEDpOT_, symObjAddr: 0x71E8, symBinAddr: 0x125D4, symSize: 0x288 }
  - { offsetInCU: 0x47C3, offset: 0x13BE2, size: 0x8, addend: 0x0, symName: __ZN2bq5arrayINS_11string_baseIcEELm0EE9constructIJRS2_EEEvNS_14array_iteratorIS2_S3_EEDpOT_, symObjAddr: 0x7800, symBinAddr: 0x12870, symSize: 0x74 }
  - { offsetInCU: 0x4820, offset: 0x13C3F, size: 0x8, addend: 0x0, symName: __ZN2bq5arrayINS_11string_baseIcEELm0EE6insertIJS2_EEEvNS_14array_iteratorIS2_S3_EEDpOT_, symObjAddr: 0x78A4, symBinAddr: 0x128E4, symSize: 0x288 }
  - { offsetInCU: 0x48AE, offset: 0x13CCD, size: 0x8, addend: 0x0, symName: __ZN2bq5arrayINS_11string_baseIcEELm0EE9constructIJS2_EEEvNS_14array_iteratorIS2_S3_EEDpOT_, symObjAddr: 0x7B2C, symBinAddr: 0x12B6C, symSize: 0x74 }
  - { offsetInCU: 0x490B, offset: 0x13D2A, size: 0x8, addend: 0x0, symName: __ZN2bq5arrayINS_12file_manager15file_descriptorELm0EE9push_backIJS2_EEEmDpOT_, symObjAddr: 0x7BA0, symBinAddr: 0x12BE0, symSize: 0x58 }
  - { offsetInCU: 0x494B, offset: 0x13D6A, size: 0x8, addend: 0x0, symName: __ZN2bq5arrayINS_12file_manager15file_descriptorELm0EE6insertIJS2_EEEvNS_14array_iteratorIS2_S3_EEDpOT_, symObjAddr: 0x7C0C, symBinAddr: 0x12C4C, symSize: 0x288 }
  - { offsetInCU: 0x49D9, offset: 0x13DF8, size: 0x8, addend: 0x0, symName: __ZN2bq5arrayINS_12file_manager15file_descriptorELm0EE3endEv, symObjAddr: 0x7E94, symBinAddr: 0x12ED4, symSize: 0x44 }
  - { offsetInCU: 0x4A00, offset: 0x13E1F, size: 0x8, addend: 0x0, symName: __ZN2bq5arrayINS_12file_manager15file_descriptorELm0EE5beginEv, symObjAddr: 0x7F8C, symBinAddr: 0x12FCC, symSize: 0x34 }
  - { offsetInCU: 0x4A27, offset: 0x13E46, size: 0x8, addend: 0x0, symName: __ZN2bq5arrayINS_12file_manager15file_descriptorELm0EE12set_capacityEmb, symObjAddr: 0x8100, symBinAddr: 0x13140, symSize: 0x230 }
  - { offsetInCU: 0x4A96, offset: 0x13EB5, size: 0x8, addend: 0x0, symName: __ZN2bq14array_iteratorINS_12file_manager15file_descriptorENS_5arrayIS2_Lm0EEEEplEm, symObjAddr: 0x8330, symBinAddr: 0x13370, symSize: 0x44 }
  - { offsetInCU: 0x4AD8, offset: 0x13EF7, size: 0x8, addend: 0x0, symName: __ZNK2bq14array_iteratorINS_12file_manager15file_descriptorENS_5arrayIS2_Lm0EEEEcvPS2_Ev, symObjAddr: 0x8374, symBinAddr: 0x133B4, symSize: 0x18 }
  - { offsetInCU: 0x4AFE, offset: 0x13F1D, size: 0x8, addend: 0x0, symName: __ZN2bq5arrayINS_12file_manager15file_descriptorELm0EE8destructENS_14array_iteratorIS2_S3_EE, symObjAddr: 0x84CC, symBinAddr: 0x1350C, symSize: 0x34 }
  - { offsetInCU: 0x4B33, offset: 0x13F52, size: 0x8, addend: 0x0, symName: __ZN2bq5arrayINS_12file_manager15file_descriptorELm0EE9constructIJS2_EEEvNS_14array_iteratorIS2_S3_EEDpOT_, symObjAddr: 0x8500, symBinAddr: 0x13540, symSize: 0x74 }
  - { offsetInCU: 0x4B95, offset: 0x13FB4, size: 0x8, addend: 0x0, symName: __ZN2bq14array_iteratorINS_12file_manager15file_descriptorENS_5arrayIS2_Lm0EEEEC1IS2_EEPT_PKS4_, symObjAddr: 0x8574, symBinAddr: 0x135B4, symSize: 0x3C }
  - { offsetInCU: 0x4BE4, offset: 0x14003, size: 0x8, addend: 0x0, symName: __ZN2bq14array_iteratorINS_12file_manager15file_descriptorENS_5arrayIS2_Lm0EEEEC2IS2_EEPT_PKS4_, symObjAddr: 0x85B0, symBinAddr: 0x135F0, symSize: 0x70 }
  - { offsetInCU: 0x4C33, offset: 0x14052, size: 0x8, addend: 0x0, symName: __ZN2bq12file_manager15file_descriptorC1EOS1_, symObjAddr: 0x86EC, symBinAddr: 0x1372C, symSize: 0x34 }
  - { offsetInCU: 0x4C66, offset: 0x14085, size: 0x8, addend: 0x0, symName: __ZN2bq12file_manager15file_descriptorC2EOS1_, symObjAddr: 0x8720, symBinAddr: 0x13760, symSize: 0x64 }
  - { offsetInCU: 0x4C99, offset: 0x140B8, size: 0x8, addend: 0x0, symName: __ZN2bq8platform6atomicIiEC1ERKS2_, symObjAddr: 0x8784, symBinAddr: 0x137C4, symSize: 0x34 }
  - { offsetInCU: 0x4CCF, offset: 0x140EE, size: 0x8, addend: 0x0, symName: __ZN2bq8platform6atomicIiEC2ERKS2_, symObjAddr: 0x87B8, symBinAddr: 0x137F8, symSize: 0x24 }
  - { offsetInCU: 0x4D05, offset: 0x14124, size: 0x8, addend: 0x0, symName: __ZN2bq14array_iteratorINS_12file_manager15file_descriptorENS_5arrayIS2_Lm0EEEEpLEi, symObjAddr: 0x87DC, symBinAddr: 0x1381C, symSize: 0x30 }
  - { offsetInCU: 0x4D5D, offset: 0x1417C, size: 0x8, addend: 0x0, symName: __ZN2bq12file_manager15file_descriptoraSEOS1_, symObjAddr: 0x880C, symBinAddr: 0x1384C, symSize: 0x1C4 }
  - { offsetInCU: 0x4EB6, offset: 0x142D5, size: 0x8, addend: 0x0, symName: __ZNK2bq14array_iteratorINS_12file_manager15file_descriptorENS_5arrayIS2_Lm0EEEEptEv, symObjAddr: 0x89D0, symBinAddr: 0x13A10, symSize: 0x18 }
  - { offsetInCU: 0x4EDC, offset: 0x142FB, size: 0x8, addend: 0x0, symName: __ZN2bq8platform6atomicIiEC2Ev, symObjAddr: 0x8B88, symBinAddr: 0x13B04, symSize: 0x2C }
  - { offsetInCU: 0x4F04, offset: 0x14323, size: 0x8, addend: 0x0, symName: __ZN2bq8platform12_atomic_baseIiLm4EEC2Ev, symObjAddr: 0x8BB4, symBinAddr: 0x13B30, symSize: 0x18 }
  - { offsetInCU: 0x19E5, offset: 0x15D9F, size: 0x8, addend: 0x0, symName: __ZN2bqneINS_5tupleIJNS_11string_baseIcEES3_EEES4_NS_5arrayIS4_Lm0EEES6_EEbRKNS_14array_iteratorIT_T1_EERKNS7_IT0_T2_EE, symObjAddr: 0x80C, symBinAddr: 0x142A0, symSize: 0xA0 }
  - { offsetInCU: 0x1A43, offset: 0x15DFD, size: 0x8, addend: 0x0, symName: __ZN2bq3getILm0EJNS_11string_baseIcEES2_EEERNS_13tuple_elementIXT_ENS_5tupleIJDpT0_EEEE4typeERS7_, symObjAddr: 0x968, symBinAddr: 0x143FC, symSize: 0x24 }
  - { offsetInCU: 0x1A8B, offset: 0x15E45, size: 0x8, addend: 0x0, symName: __ZN2bq3getILm1EJNS_11string_baseIcEES2_EEERNS_13tuple_elementIXT_ENS_5tupleIJDpT0_EEEE4typeERS7_, symObjAddr: 0x98C, symBinAddr: 0x14420, symSize: 0x28 }
  - { offsetInCU: 0x1AD3, offset: 0x15E8D, size: 0x8, addend: 0x0, symName: __ZN2bqL10find_splitERNS_11string_baseIcEERKc, symObjAddr: 0x11B0, symBinAddr: 0x14558, symSize: 0x16C }
  - { offsetInCU: 0x1B37, offset: 0x15EF1, size: 0x8, addend: 0x0, symName: __ZN2bq10make_tupleIJRNS_11string_baseIcEES3_EEENS_5tupleIJDpNS_5decayIT_E4typeEEEEDpOS6_, symObjAddr: 0x16F4, symBinAddr: 0x14788, symSize: 0x4C }
  - { offsetInCU: 0x1B84, offset: 0x15F3E, size: 0x8, addend: 0x0, symName: __ZN2bqneINS_11string_baseIcEES2_Lb0ELb0EEEbRKNS_17hash_map_iteratorIT_T0_XT1_EEERKNS3_IS4_S5_XT2_EEE, symObjAddr: 0x19C8, symBinAddr: 0x148BC, symSize: 0x34 }
  - { offsetInCU: 0x1BE4, offset: 0x15F9E, size: 0x8, addend: 0x0, symName: __ZN2bqplIcEENS_11string_baseIT_EEOS3_PKc, symObjAddr: 0x1A30, symBinAddr: 0x14924, symSize: 0x88 }
  - { offsetInCU: 0x1C27, offset: 0x15FE1, size: 0x8, addend: 0x0, symName: __ZN2bqeqINS_11string_baseIcEES2_Lb0ELb0EEEbRKNS_17hash_map_iteratorIT_T0_XT1_EEERKNS3_IS4_S5_XT2_EEE, symObjAddr: 0x1EC8, symBinAddr: 0x14B08, symSize: 0xE4 }
  - { offsetInCU: 0x1C87, offset: 0x16041, size: 0x8, addend: 0x0, symName: __ZN2bq4moveIRNS_5arrayINS_11string_baseIcEELm0EEEEEONS_16remove_referenceIT_E4typeEOS7_, symObjAddr: 0x2688, symBinAddr: 0x14CFC, symSize: 0x14 }
  - { offsetInCU: 0x1D72, offset: 0x1612C, size: 0x8, addend: 0x0, symName: __ZN2bq7forwardINS_5tupleIJNS_11string_baseIcEES3_EEEEEOT_RNS_16remove_referenceIS5_E4typeE, symObjAddr: 0x4E74, symBinAddr: 0x155B0, symSize: 0x14 }
  - { offsetInCU: 0x1DA7, offset: 0x16161, size: 0x8, addend: 0x0, symName: __ZN2bqgeINS_5tupleIJNS_11string_baseIcEES3_EEES4_NS_5arrayIS4_Lm0EEES6_EEbRKNS_14array_iteratorIT_T1_EERKNS7_IT0_T2_EE, symObjAddr: 0x4E88, symBinAddr: 0x155C4, symSize: 0xA0 }
  - { offsetInCU: 0x1E05, offset: 0x161BF, size: 0x8, addend: 0x0, symName: __ZN2bqleINS_5tupleIJNS_11string_baseIcEES3_EEES4_NS_5arrayIS4_Lm0EEES6_EEbRKNS_14array_iteratorIT_T1_EERKNS7_IT0_T2_EE, symObjAddr: 0x4F28, symBinAddr: 0x15664, symSize: 0xA0 }
  - { offsetInCU: 0x1E63, offset: 0x1621D, size: 0x8, addend: 0x0, symName: __ZN2bqmiINS_5tupleIJNS_11string_baseIcEES3_EEES4_NS_5arrayIS4_Lm0EEES6_EENS_14array_iteratorIT_T1_E9diff_typeERKSA_RKNS7_IT0_T2_EE, symObjAddr: 0x4FC8, symBinAddr: 0x15704, symSize: 0xA0 }
  - { offsetInCU: 0x1EC1, offset: 0x1627B, size: 0x8, addend: 0x0, symName: __ZN2bq19_inner_forward_moveINS_5tupleIJNS_11string_baseIcEES3_EEEEENS_9enable_ifIXntaasr2bq31is_trivially_copy_constructibleIT_EE5valuesr2bq31is_trivially_move_constructibleIS6_EE5valueEvE4typeEPS6_S9_m, symObjAddr: 0x52F4, symBinAddr: 0x15A30, symSize: 0x140 }
  - { offsetInCU: 0x1F7C, offset: 0x16336, size: 0x8, addend: 0x0, symName: __ZN2bq15_inner_mem_copyINS_5tupleIJNS_11string_baseIcEES3_EEEEENS_9enable_ifIXntaasr2bq31is_trivially_copy_constructibleIT_EE5valuesr2bq31is_trivially_move_constructibleIS6_EE5valueEvE4typeEPS6_S9_m, symObjAddr: 0x54DC, symBinAddr: 0x15C18, symSize: 0xCC }
  - { offsetInCU: 0x1FEE, offset: 0x163A8, size: 0x8, addend: 0x0, symName: __ZN2bq4moveIRNS_5tupleIJNS_11string_baseIcEES3_EEEEEONS_16remove_referenceIT_E4typeEOS7_, symObjAddr: 0x55A8, symBinAddr: 0x15CE4, symSize: 0x14 }
  - { offsetInCU: 0x2023, offset: 0x163DD, size: 0x8, addend: 0x0, symName: __ZN2bq7forwardIRKNS_11string_baseIcEEEEOT_RNS_16remove_referenceIS5_E4typeE, symObjAddr: 0x6248, symBinAddr: 0x1683C, symSize: 0x14 }
  - { offsetInCU: 0x2350, offset: 0x1670A, size: 0x8, addend: 0x0, symName: __ZN2bq8hash_mapINS_11string_baseIcEES2_E12expand_nodesEj, symObjAddr: 0x6D30, symBinAddr: 0x17324, symSize: 0x2C0 }
  - { offsetInCU: 0x29B6, offset: 0x16D70, size: 0x8, addend: 0x0, symName: __ZN2bq8property4loadERKNS_11string_baseIcEE, symObjAddr: 0x88, symBinAddr: 0x13B48, symSize: 0xD8 }
  - { offsetInCU: 0x2A49, offset: 0x16E03, size: 0x8, addend: 0x0, symName: __ZN2bq8property5parseERKNS_11string_baseIcEE, symObjAddr: 0x18C, symBinAddr: 0x13C20, symSize: 0x608 }
  - { offsetInCU: 0x2AFE, offset: 0x16EB8, size: 0x8, addend: 0x0, symName: __ZN2bq5arrayINS_5tupleIJNS_11string_baseIcEES3_EEELm0EE5beginEv, symObjAddr: 0x794, symBinAddr: 0x14228, symSize: 0x34 }
  - { offsetInCU: 0x2B25, offset: 0x16EDF, size: 0x8, addend: 0x0, symName: __ZN2bq5arrayINS_5tupleIJNS_11string_baseIcEES3_EEELm0EE3endEv, symObjAddr: 0x7C8, symBinAddr: 0x1425C, symSize: 0x44 }
  - { offsetInCU: 0x2B4C, offset: 0x16F06, size: 0x8, addend: 0x0, symName: __ZNK2bq14array_iteratorINS_5tupleIJNS_11string_baseIcEES3_EEENS_5arrayIS4_Lm0EEEEdeEv, symObjAddr: 0x8AC, symBinAddr: 0x14340, symSize: 0x18 }
  - { offsetInCU: 0x2B72, offset: 0x16F2C, size: 0x8, addend: 0x0, symName: __ZN2bq8property3setERKNS_11string_baseIcEES4_, symObjAddr: 0x8C4, symBinAddr: 0x14358, symSize: 0xA4 }
  - { offsetInCU: 0x2BB4, offset: 0x16F6E, size: 0x8, addend: 0x0, symName: __ZN2bq14array_iteratorINS_5tupleIJNS_11string_baseIcEES3_EEENS_5arrayIS4_Lm0EEEEppEv, symObjAddr: 0x9B4, symBinAddr: 0x14448, symSize: 0x20 }
  - { offsetInCU: 0x2BDA, offset: 0x16F94, size: 0x8, addend: 0x0, symName: __ZNK2bq8hash_mapINS_11string_baseIcEES2_E8is_emptyEv, symObjAddr: 0x9D4, symBinAddr: 0x14468, symSize: 0x24 }
  - { offsetInCU: 0x2C00, offset: 0x16FBA, size: 0x8, addend: 0x0, symName: __ZN2bq5arrayINS_5tupleIJNS_11string_baseIcEES3_EEELm0EED1Ev, symObjAddr: 0x9F8, symBinAddr: 0x1448C, symSize: 0x2C }
  - { offsetInCU: 0x2C2A, offset: 0x16FE4, size: 0x8, addend: 0x0, symName: __ZN2bq5arrayINS_5tupleIJNS_11string_baseIcEES3_EEELm0EEC1Ev, symObjAddr: 0xA24, symBinAddr: 0x144B8, symSize: 0x2C }
  - { offsetInCU: 0x2C54, offset: 0x1700E, size: 0x8, addend: 0x0, symName: __ZN2bq5arrayIcLm1EEixEm, symObjAddr: 0x113C, symBinAddr: 0x144E4, symSize: 0x74 }
  - { offsetInCU: 0x2C89, offset: 0x17043, size: 0x8, addend: 0x0, symName: __ZN2bq5arrayINS_11string_baseIcEELm0EEaSEOS3_, symObjAddr: 0x131C, symBinAddr: 0x146C4, symSize: 0x6C }
  - { offsetInCU: 0x2CBE, offset: 0x17078, size: 0x8, addend: 0x0, symName: __ZN2bq5arrayINS_5tupleIJNS_11string_baseIcEES3_EEELm0EE9push_backIJS4_EEEmDpOT_, symObjAddr: 0x169C, symBinAddr: 0x14730, symSize: 0x58 }
  - { offsetInCU: 0x2CFE, offset: 0x170B8, size: 0x8, addend: 0x0, symName: __ZN2bq5tupleIJNS_11string_baseIcEES2_EED1Ev, symObjAddr: 0x1740, symBinAddr: 0x147D4, symSize: 0x2C }
  - { offsetInCU: 0x2D29, offset: 0x170E3, size: 0x8, addend: 0x0, symName: __ZN2bq8hash_mapINS_11string_baseIcEES2_E5beginEv, symObjAddr: 0x190C, symBinAddr: 0x14800, symSize: 0x84 }
  - { offsetInCU: 0x2D50, offset: 0x1710A, size: 0x8, addend: 0x0, symName: __ZN2bq8hash_mapINS_11string_baseIcEES2_E3endEv, symObjAddr: 0x1990, symBinAddr: 0x14884, symSize: 0x38 }
  - { offsetInCU: 0x2D77, offset: 0x17131, size: 0x8, addend: 0x0, symName: __ZN2bq17hash_map_iteratorINS_11string_baseIcEES2_Lb0EEdeEv, symObjAddr: 0x19FC, symBinAddr: 0x148F0, symSize: 0x34 }
  - { offsetInCU: 0x2D9D, offset: 0x17157, size: 0x8, addend: 0x0, symName: __ZNK2bq7kv_pairINS_11string_baseIcEES2_E3keyEv, symObjAddr: 0x1B40, symBinAddr: 0x149AC, symSize: 0x14 }
  - { offsetInCU: 0x2DC1, offset: 0x1717B, size: 0x8, addend: 0x0, symName: __ZN2bq7kv_pairINS_11string_baseIcEES2_E5valueEv, symObjAddr: 0x1CD8, symBinAddr: 0x149C0, symSize: 0x18 }
  - { offsetInCU: 0x2DE5, offset: 0x1719F, size: 0x8, addend: 0x0, symName: __ZN2bq17hash_map_iteratorINS_11string_baseIcEES2_Lb0EEppEv, symObjAddr: 0x1CF0, symBinAddr: 0x149D8, symSize: 0x88 }
  - { offsetInCU: 0x2E0B, offset: 0x171C5, size: 0x8, addend: 0x0, symName: __ZN2bq8hash_mapINS_11string_baseIcEES2_E4findERKS2_, symObjAddr: 0x1E20, symBinAddr: 0x14A60, symSize: 0x74 }
  - { offsetInCU: 0x2E4D, offset: 0x17207, size: 0x8, addend: 0x0, symName: __ZN2bq17hash_map_iteratorINS_11string_baseIcEES2_Lb0EEptEv, symObjAddr: 0x1E94, symBinAddr: 0x14AD4, symSize: 0x34 }
  - { offsetInCU: 0x2E73, offset: 0x1722D, size: 0x8, addend: 0x0, symName: __ZN2bq5arrayINS_11string_baseIcEELm0EE9push_backIJRKS2_EEEmDpOT_, symObjAddr: 0x1FAC, symBinAddr: 0x14BEC, symSize: 0x58 }
  - { offsetInCU: 0x2EB3, offset: 0x1726D, size: 0x8, addend: 0x0, symName: __ZN2bq8hash_mapINS_11string_baseIcEES2_EixERKS2_, symObjAddr: 0x2004, symBinAddr: 0x14C44, symSize: 0x90 }
  - { offsetInCU: 0x2EFA, offset: 0x172B4, size: 0x8, addend: 0x0, symName: __ZN2bq26__tuple_element_value_implILm1ENS_11string_baseIcEELb0EE3getEv, symObjAddr: 0x25DC, symBinAddr: 0x14CD4, symSize: 0x14 }
  - { offsetInCU: 0x2F1E, offset: 0x172D8, size: 0x8, addend: 0x0, symName: __ZN2bq26__tuple_element_value_implILm0ENS_11string_baseIcEELb0EE3getEv, symObjAddr: 0x25F0, symBinAddr: 0x14CE8, symSize: 0x14 }
  - { offsetInCU: 0x2F42, offset: 0x172FC, size: 0x8, addend: 0x0, symName: __ZN2bq5arrayINS_11string_baseIcEELm0EEC1EOS3_, symObjAddr: 0x269C, symBinAddr: 0x14D10, symSize: 0x34 }
  - { offsetInCU: 0x2F80, offset: 0x1733A, size: 0x8, addend: 0x0, symName: __ZN2bq5arrayINS_11string_baseIcEELm0EEC2EOS3_, symObjAddr: 0x347C, symBinAddr: 0x14D44, symSize: 0x6C }
  - { offsetInCU: 0x2FB9, offset: 0x17373, size: 0x8, addend: 0x0, symName: __ZNK2bq5arrayINS_11string_baseIcEELm0EE8capacityEv, symObjAddr: 0x34E8, symBinAddr: 0x14DB0, symSize: 0x18 }
  - { offsetInCU: 0x2FE0, offset: 0x1739A, size: 0x8, addend: 0x0, symName: __ZN2bq5tupleIJNS_11string_baseIcEES2_EED2Ev, symObjAddr: 0x3500, symBinAddr: 0x14DC8, symSize: 0x38 }
  - { offsetInCU: 0x300B, offset: 0x173C5, size: 0x8, addend: 0x0, symName: __ZN2bq5tupleIJNS_11string_baseIcEEEED2Ev, symObjAddr: 0x3538, symBinAddr: 0x14E00, symSize: 0x2C }
  - { offsetInCU: 0x3036, offset: 0x173F0, size: 0x8, addend: 0x0, symName: __ZN2bq21__tuple_element_valueILm1ENS_11string_baseIcEEED2Ev, symObjAddr: 0x3564, symBinAddr: 0x14E2C, symSize: 0x2C }
  - { offsetInCU: 0x3061, offset: 0x1741B, size: 0x8, addend: 0x0, symName: __ZN2bq21__tuple_element_valueILm0ENS_11string_baseIcEEED2Ev, symObjAddr: 0x3590, symBinAddr: 0x14E58, symSize: 0x2C }
  - { offsetInCU: 0x308C, offset: 0x17446, size: 0x8, addend: 0x0, symName: __ZN2bq26__tuple_element_value_implILm0ENS_11string_baseIcEELb0EED2Ev, symObjAddr: 0x35BC, symBinAddr: 0x14E84, symSize: 0x2C }
  - { offsetInCU: 0x30B7, offset: 0x17471, size: 0x8, addend: 0x0, symName: __ZN2bq26__tuple_element_value_implILm1ENS_11string_baseIcEELb0EED2Ev, symObjAddr: 0x35E8, symBinAddr: 0x14EB0, symSize: 0x2C }
  - { offsetInCU: 0x30E2, offset: 0x1749C, size: 0x8, addend: 0x0, symName: __ZN2bq5arrayINS_5tupleIJNS_11string_baseIcEES3_EEELm0EED2Ev, symObjAddr: 0x3660, symBinAddr: 0x14EDC, symSize: 0x2C }
  - { offsetInCU: 0x310C, offset: 0x174C6, size: 0x8, addend: 0x0, symName: __ZN2bq5arrayINS_5tupleIJNS_11string_baseIcEES3_EEELm0EE5resetIS4_EENS_9enable_ifIXntsr2bq6is_podIT_EE5valueEvE4typeEv, symObjAddr: 0x368C, symBinAddr: 0x14F08, symSize: 0x6C }
  - { offsetInCU: 0x3141, offset: 0x174FB, size: 0x8, addend: 0x0, symName: __ZN2bq23object_array_destructorINS_5tupleIJNS_11string_baseIcEES3_EEEE8destructEPS4_m, symObjAddr: 0x36F8, symBinAddr: 0x14F74, symSize: 0x2C }
  - { offsetInCU: 0x3171, offset: 0x1752B, size: 0x8, addend: 0x0, symName: __ZN2bq23object_array_destructorINS_5tupleIJNS_11string_baseIcEES3_EEEE15destructor_implIS4_NS5_27non_trivial_destructor_typeEE8destructEPS4_m, symObjAddr: 0x3724, symBinAddr: 0x14FA0, symSize: 0x84 }
  - { offsetInCU: 0x31BD, offset: 0x17577, size: 0x8, addend: 0x0, symName: __ZN2bq17object_destructorINS_5tupleIJNS_11string_baseIcEES3_EEEE8destructEPS4_, symObjAddr: 0x37A8, symBinAddr: 0x15024, symSize: 0x24 }
  - { offsetInCU: 0x31DF, offset: 0x17599, size: 0x8, addend: 0x0, symName: __ZN2bq17object_destructorINS_5tupleIJNS_11string_baseIcEES3_EEEE15destructor_implIS4_NS5_27non_trivial_destructor_typeEE8destructEPS4_, symObjAddr: 0x37CC, symBinAddr: 0x15048, symSize: 0x3C }
  - { offsetInCU: 0x3206, offset: 0x175C0, size: 0x8, addend: 0x0, symName: __ZN2bq14array_iteratorINS_5tupleIJNS_11string_baseIcEES3_EEENS_5arrayIS4_Lm0EEEEC1IS4_EEPT_PKS6_, symObjAddr: 0x3808, symBinAddr: 0x15084, symSize: 0x3C }
  - { offsetInCU: 0x3255, offset: 0x1760F, size: 0x8, addend: 0x0, symName: __ZN2bq14array_iteratorINS_5tupleIJNS_11string_baseIcEES3_EEENS_5arrayIS4_Lm0EEEEC2IS4_EEPT_PKS6_, symObjAddr: 0x3844, symBinAddr: 0x150C0, symSize: 0x70 }
  - { offsetInCU: 0x32A4, offset: 0x1765E, size: 0x8, addend: 0x0, symName: __ZN2bq5arrayINS_5tupleIJNS_11string_baseIcEES3_EEELm0EEC2Ev, symObjAddr: 0x4438, symBinAddr: 0x15130, symSize: 0x20 }
  - { offsetInCU: 0x32CE, offset: 0x17688, size: 0x8, addend: 0x0, symName: __ZN2bq5tupleIJNS_11string_baseIcEES2_EEC1IRS2_JS5_EEEOT_DpOT0_, symObjAddr: 0x4A14, symBinAddr: 0x15150, symSize: 0x3C }
  - { offsetInCU: 0x3328, offset: 0x176E2, size: 0x8, addend: 0x0, symName: __ZN2bq5tupleIJNS_11string_baseIcEES2_EEC2IRS2_JS5_EEEOT_DpOT0_, symObjAddr: 0x4A50, symBinAddr: 0x1518C, symSize: 0x5C }
  - { offsetInCU: 0x3382, offset: 0x1773C, size: 0x8, addend: 0x0, symName: __ZN2bq21__tuple_element_valueILm1ENS_11string_baseIcEEEC2IRS2_EEOT_, symObjAddr: 0x4AAC, symBinAddr: 0x151E8, symSize: 0x40 }
  - { offsetInCU: 0x33C2, offset: 0x1777C, size: 0x8, addend: 0x0, symName: __ZN2bq5tupleIJNS_11string_baseIcEEEEC2IRS2_JEEEOT_DpOT0_, symObjAddr: 0x4AEC, symBinAddr: 0x15228, symSize: 0x40 }
  - { offsetInCU: 0x3408, offset: 0x177C2, size: 0x8, addend: 0x0, symName: __ZN2bq26__tuple_element_value_implILm1ENS_11string_baseIcEELb0EEC2IRS2_EEOT_, symObjAddr: 0x4B2C, symBinAddr: 0x15268, symSize: 0x40 }
  - { offsetInCU: 0x3448, offset: 0x17802, size: 0x8, addend: 0x0, symName: __ZN2bq21__tuple_element_valueILm0ENS_11string_baseIcEEEC2IRS2_EEOT_, symObjAddr: 0x4B6C, symBinAddr: 0x152A8, symSize: 0x40 }
  - { offsetInCU: 0x3488, offset: 0x17842, size: 0x8, addend: 0x0, symName: __ZN2bq26__tuple_element_value_implILm0ENS_11string_baseIcEELb0EEC2IRS2_EEOT_, symObjAddr: 0x4BAC, symBinAddr: 0x152E8, symSize: 0x40 }
  - { offsetInCU: 0x34C8, offset: 0x17882, size: 0x8, addend: 0x0, symName: __ZN2bq5arrayINS_5tupleIJNS_11string_baseIcEES3_EEELm0EE6insertIJS4_EEEvNS_14array_iteratorIS4_S5_EEDpOT_, symObjAddr: 0x4BEC, symBinAddr: 0x15328, symSize: 0x288 }
  - { offsetInCU: 0x3556, offset: 0x17910, size: 0x8, addend: 0x0, symName: __ZN2bq5arrayINS_5tupleIJNS_11string_baseIcEES3_EEELm0EE12set_capacityEmb, symObjAddr: 0x5068, symBinAddr: 0x157A4, symSize: 0x230 }
  - { offsetInCU: 0x35C5, offset: 0x1797F, size: 0x8, addend: 0x0, symName: __ZN2bq14array_iteratorINS_5tupleIJNS_11string_baseIcEES3_EEENS_5arrayIS4_Lm0EEEEplEm, symObjAddr: 0x5298, symBinAddr: 0x159D4, symSize: 0x44 }
  - { offsetInCU: 0x3607, offset: 0x179C1, size: 0x8, addend: 0x0, symName: __ZNK2bq14array_iteratorINS_5tupleIJNS_11string_baseIcEES3_EEENS_5arrayIS4_Lm0EEEEcvPS4_Ev, symObjAddr: 0x52DC, symBinAddr: 0x15A18, symSize: 0x18 }
  - { offsetInCU: 0x362D, offset: 0x179E7, size: 0x8, addend: 0x0, symName: __ZN2bq5arrayINS_5tupleIJNS_11string_baseIcEES3_EEELm0EE8destructENS_14array_iteratorIS4_S5_EE, symObjAddr: 0x5434, symBinAddr: 0x15B70, symSize: 0x34 }
  - { offsetInCU: 0x3662, offset: 0x17A1C, size: 0x8, addend: 0x0, symName: __ZN2bq5arrayINS_5tupleIJNS_11string_baseIcEES3_EEELm0EE9constructIJS4_EEEvNS_14array_iteratorIS4_S5_EEDpOT_, symObjAddr: 0x5468, symBinAddr: 0x15BA4, symSize: 0x74 }
  - { offsetInCU: 0x36BF, offset: 0x17A79, size: 0x8, addend: 0x0, symName: __ZN2bq5tupleIJNS_11string_baseIcEES2_EEC1EOS3_, symObjAddr: 0x55BC, symBinAddr: 0x15CF8, symSize: 0x34 }
  - { offsetInCU: 0x36F3, offset: 0x17AAD, size: 0x8, addend: 0x0, symName: __ZN2bq5tupleIJNS_11string_baseIcEES2_EEC2EOS3_, symObjAddr: 0x55F0, symBinAddr: 0x15D2C, symSize: 0x48 }
  - { offsetInCU: 0x372C, offset: 0x17AE6, size: 0x8, addend: 0x0, symName: __ZN2bq21__tuple_element_valueILm1ENS_11string_baseIcEEEC2EOS3_, symObjAddr: 0x5638, symBinAddr: 0x15D74, symSize: 0x34 }
  - { offsetInCU: 0x3765, offset: 0x17B1F, size: 0x8, addend: 0x0, symName: __ZN2bq5tupleIJNS_11string_baseIcEEEEC2EOS3_, symObjAddr: 0x566C, symBinAddr: 0x15DA8, symSize: 0x34 }
  - { offsetInCU: 0x379E, offset: 0x17B58, size: 0x8, addend: 0x0, symName: __ZN2bq26__tuple_element_value_implILm1ENS_11string_baseIcEELb0EEC2EOS3_, symObjAddr: 0x56A0, symBinAddr: 0x15DDC, symSize: 0x34 }
  - { offsetInCU: 0x37D7, offset: 0x17B91, size: 0x8, addend: 0x0, symName: __ZN2bq21__tuple_element_valueILm0ENS_11string_baseIcEEEC2EOS3_, symObjAddr: 0x56D4, symBinAddr: 0x15E10, symSize: 0x34 }
  - { offsetInCU: 0x3810, offset: 0x17BCA, size: 0x8, addend: 0x0, symName: __ZN2bq26__tuple_element_value_implILm0ENS_11string_baseIcEELb0EEC2EOS3_, symObjAddr: 0x5708, symBinAddr: 0x15E44, symSize: 0x34 }
  - { offsetInCU: 0x3844, offset: 0x17BFE, size: 0x8, addend: 0x0, symName: __ZN2bq14array_iteratorINS_5tupleIJNS_11string_baseIcEES3_EEENS_5arrayIS4_Lm0EEEEpLEi, symObjAddr: 0x573C, symBinAddr: 0x15E78, symSize: 0x30 }
  - { offsetInCU: 0x387D, offset: 0x17C37, size: 0x8, addend: 0x0, symName: __ZN2bq5tupleIJNS_11string_baseIcEES2_EEaSEOS3_, symObjAddr: 0x576C, symBinAddr: 0x15EA8, symSize: 0x48 }
  - { offsetInCU: 0x38B2, offset: 0x17C6C, size: 0x8, addend: 0x0, symName: __ZN2bq21__tuple_element_valueILm1ENS_11string_baseIcEEEaSEOS3_, symObjAddr: 0x57B4, symBinAddr: 0x15EF0, symSize: 0x34 }
  - { offsetInCU: 0x38E7, offset: 0x17CA1, size: 0x8, addend: 0x0, symName: __ZN2bq5tupleIJNS_11string_baseIcEEEEaSEOS3_, symObjAddr: 0x57E8, symBinAddr: 0x15F24, symSize: 0x34 }
  - { offsetInCU: 0x391C, offset: 0x17CD6, size: 0x8, addend: 0x0, symName: __ZN2bq26__tuple_element_value_implILm1ENS_11string_baseIcEELb0EEaSEOS3_, symObjAddr: 0x581C, symBinAddr: 0x15F58, symSize: 0x34 }
  - { offsetInCU: 0x3951, offset: 0x17D0B, size: 0x8, addend: 0x0, symName: __ZN2bq21__tuple_element_valueILm0ENS_11string_baseIcEEEaSEOS3_, symObjAddr: 0x5850, symBinAddr: 0x15F8C, symSize: 0x34 }
  - { offsetInCU: 0x3986, offset: 0x17D40, size: 0x8, addend: 0x0, symName: __ZN2bq26__tuple_element_value_implILm0ENS_11string_baseIcEELb0EEaSEOS3_, symObjAddr: 0x5884, symBinAddr: 0x15FC0, symSize: 0x34 }
  - { offsetInCU: 0x39B6, offset: 0x17D70, size: 0x8, addend: 0x0, symName: __ZNK2bq14array_iteratorINS_5tupleIJNS_11string_baseIcEES3_EEENS_5arrayIS4_Lm0EEEEptEv, symObjAddr: 0x58B8, symBinAddr: 0x15FF4, symSize: 0x18 }
  - { offsetInCU: 0x39DC, offset: 0x17D96, size: 0x8, addend: 0x0, symName: __ZN2bq8hash_mapINS_11string_baseIcEES2_E22value_node_buffer_headINS3_10value_nodeEEixEj, symObjAddr: 0x58D0, symBinAddr: 0x1600C, symSize: 0x74 }
  - { offsetInCU: 0x3A0E, offset: 0x17DC8, size: 0x8, addend: 0x0, symName: __ZN2bq17hash_map_iteratorINS_11string_baseIcEES2_Lb0EEC1EPNS_8hash_mapIS2_S2_EEjj, symObjAddr: 0x5944, symBinAddr: 0x16080, symSize: 0x44 }
  - { offsetInCU: 0x3A60, offset: 0x17E1A, size: 0x8, addend: 0x0, symName: __ZN2bq17hash_map_iteratorINS_11string_baseIcEES2_Lb0EEC2EPNS_8hash_mapIS2_S2_EEjj, symObjAddr: 0x5988, symBinAddr: 0x160C4, symSize: 0x38 }
  - { offsetInCU: 0x3AB2, offset: 0x17E6C, size: 0x8, addend: 0x0, symName: __ZNK2bq8hash_mapINS_11string_baseIcEES2_E19get_next_node_indexEj, symObjAddr: 0x59C0, symBinAddr: 0x160FC, symSize: 0x68 }
  - { offsetInCU: 0x3AE8, offset: 0x17EA2, size: 0x8, addend: 0x0, symName: __ZNK2bq8hash_mapINS_11string_baseIcEES2_E22value_node_buffer_headINS3_10value_nodeEEixEj, symObjAddr: 0x5A28, symBinAddr: 0x16164, symSize: 0x74 }
  - { offsetInCU: 0x3B1A, offset: 0x17ED4, size: 0x8, addend: 0x0, symName: __ZNK2bq8hash_mapINS_11string_baseIcEES2_E32find_index_and_bucket_idx_by_keyERKS2_, symObjAddr: 0x5A9C, symBinAddr: 0x161D8, symSize: 0x114 }
  - { offsetInCU: 0x3BA8, offset: 0x17F62, size: 0x8, addend: 0x0, symName: __ZNK2bq8hash_mapINS_11string_baseIcEES2_E12buckets_sizeEv, symObjAddr: 0x5BDC, symBinAddr: 0x162EC, symSize: 0x24 }
  - { offsetInCU: 0x3BCE, offset: 0x17F88, size: 0x8, addend: 0x0, symName: __ZNK2bq8hash_mapINS_11string_baseIcEES2_E23get_bucket_index_by_keyERKS2_, symObjAddr: 0x5C00, symBinAddr: 0x16310, symSize: 0x44 }
  - { offsetInCU: 0x3C13, offset: 0x17FCD, size: 0x8, addend: 0x0, symName: __ZNK2bq8hash_mapINS_11string_baseIcEES2_E22value_node_buffer_headIjEixEj, symObjAddr: 0x5C44, symBinAddr: 0x16354, symSize: 0x74 }
  - { offsetInCU: 0x3C45, offset: 0x17FFF, size: 0x8, addend: 0x0, symName: __ZNK2bq11string_baseIcEeqERKS1_, symObjAddr: 0x5CB8, symBinAddr: 0x163C8, symSize: 0xBC }
  - { offsetInCU: 0x3C7A, offset: 0x18034, size: 0x8, addend: 0x0, symName: __ZNK2bq8hash_mapINS_11string_baseIcEES2_E22value_node_buffer_headIjE4sizeEv, symObjAddr: 0x5DB0, symBinAddr: 0x16484, symSize: 0x18 }
  - { offsetInCU: 0x3C9E, offset: 0x18058, size: 0x8, addend: 0x0, symName: __ZN2bq28generic_type_hash_calculatorINS_11string_baseIcEEE9hash_codeERKS2_, symObjAddr: 0x5DC8, symBinAddr: 0x1649C, symSize: 0x24 }
  - { offsetInCU: 0x3CC0, offset: 0x1807A, size: 0x8, addend: 0x0, symName: __ZNK2bq8hash_mapINS_11string_baseIcEES2_E24get_bucket_index_by_hashEy, symObjAddr: 0x5DEC, symBinAddr: 0x164C0, symSize: 0x3C }
  - { offsetInCU: 0x3CF6, offset: 0x180B0, size: 0x8, addend: 0x0, symName: __ZNK2bq11string_baseIcE9hash_codeEv, symObjAddr: 0x5E28, symBinAddr: 0x164FC, symSize: 0x24 }
  - { offsetInCU: 0x3D1D, offset: 0x180D7, size: 0x8, addend: 0x0, symName: __ZN2bq11string_baseIcE8get_hashERKS1_, symObjAddr: 0x5E4C, symBinAddr: 0x16520, symSize: 0x94 }
  - { offsetInCU: 0x3D6F, offset: 0x18129, size: 0x8, addend: 0x0, symName: __ZN2bq5arrayINS_11string_baseIcEELm0EE6insertIJRKS2_EEEvNS_14array_iteratorIS2_S3_EEDpOT_, symObjAddr: 0x5FC0, symBinAddr: 0x165B4, symSize: 0x288 }
  - { offsetInCU: 0x3DFD, offset: 0x181B7, size: 0x8, addend: 0x0, symName: __ZN2bq5arrayINS_11string_baseIcEELm0EE9constructIJRKS2_EEEvNS_14array_iteratorIS2_S3_EEDpOT_, symObjAddr: 0x625C, symBinAddr: 0x16850, symSize: 0x74 }
  - { offsetInCU: 0x3E5A, offset: 0x18214, size: 0x8, addend: 0x0, symName: __ZNK2bq17hash_map_iteratorINS_11string_baseIcEES2_Lb0EEcvbEv, symObjAddr: 0x62D0, symBinAddr: 0x168C4, symSize: 0x44 }
  - { offsetInCU: 0x3E80, offset: 0x1823A, size: 0x8, addend: 0x0, symName: __ZN2bq8hash_mapINS_11string_baseIcEES2_E3addERKS2_, symObjAddr: 0x6314, symBinAddr: 0x16908, symSize: 0x64 }
  - { offsetInCU: 0x3EC2, offset: 0x1827C, size: 0x8, addend: 0x0, symName: __ZNK2bq8hash_mapINS_11string_baseIcEES2_E20iterator_legal_checkERKNS_17hash_map_iteratorIS2_S2_Lb1EEE, symObjAddr: 0x6378, symBinAddr: 0x1696C, symSize: 0x124 }
  - { offsetInCU: 0x3EFC, offset: 0x182B6, size: 0x8, addend: 0x0, symName: __ZN2bq17hash_map_iteratorINS_11string_baseIcEES2_Lb1EEC1ILb0EEERKNS0_IS2_S2_XT_EEE, symObjAddr: 0x649C, symBinAddr: 0x16A90, symSize: 0x34 }
  - { offsetInCU: 0x3F3C, offset: 0x182F6, size: 0x8, addend: 0x0, symName: __ZNK2bq8hash_mapINS_11string_baseIcEES2_E22value_node_buffer_headINS3_10value_nodeEE4sizeEv, symObjAddr: 0x64D0, symBinAddr: 0x16AC4, symSize: 0x18 }
  - { offsetInCU: 0x3F60, offset: 0x1831A, size: 0x8, addend: 0x0, symName: __ZN2bq17hash_map_iteratorINS_11string_baseIcEES2_Lb1EEC2ILb0EEERKNS0_IS2_S2_XT_EEE, symObjAddr: 0x64E8, symBinAddr: 0x16ADC, symSize: 0x3C }
  - { offsetInCU: 0x3FA0, offset: 0x1835A, size: 0x8, addend: 0x0, symName: __ZN2bq8hash_mapINS_11string_baseIcEES2_E17alloc_node_by_keyERKS2_, symObjAddr: 0x6524, symBinAddr: 0x16B18, symSize: 0x304 }
  - { offsetInCU: 0x4098, offset: 0x18452, size: 0x8, addend: 0x0, symName: __ZN2bq8hash_mapINS_11string_baseIcEES2_E15construct_valueERNS_17hash_map_iteratorIS2_S2_Lb0EEE, symObjAddr: 0x6828, symBinAddr: 0x16E1C, symSize: 0x5C }
  - { offsetInCU: 0x40CD, offset: 0x18487, size: 0x8, addend: 0x0, symName: __ZNK2bq8hash_mapINS_11string_baseIcEES2_E4sizeEv, symObjAddr: 0x6884, symBinAddr: 0x16E78, symSize: 0x18 }
  - { offsetInCU: 0x40F3, offset: 0x184AD, size: 0x8, addend: 0x0, symName: __ZN2bq8hash_mapINS_11string_baseIcEES2_E14expand_bucketsEj, symObjAddr: 0x689C, symBinAddr: 0x16E90, symSize: 0x494 }
  - { offsetInCU: 0x41F8, offset: 0x185B2, size: 0x8, addend: 0x0, symName: __ZNK2bq8hash_mapINS_11string_baseIcEES2_E10nodes_sizeEv, symObjAddr: 0x6FF0, symBinAddr: 0x175E4, symSize: 0x28 }
  - { offsetInCU: 0x421E, offset: 0x185D8, size: 0x8, addend: 0x0, symName: __ZN2bq8hash_mapINS_11string_baseIcEES2_E22value_node_buffer_headIjEixEj, symObjAddr: 0x7018, symBinAddr: 0x1760C, symSize: 0x74 }
  - { offsetInCU: 0x4250, offset: 0x1860A, size: 0x8, addend: 0x0, symName: __ZN2bq8hash_mapINS_11string_baseIcEES2_E13construct_keyIRKS2_EEvRNS_17hash_map_iteratorIS2_S2_Lb0EEEOT_, symObjAddr: 0x708C, symBinAddr: 0x17680, symSize: 0x68 }
  - { offsetInCU: 0x429C, offset: 0x18656, size: 0x8, addend: 0x0, symName: __ZN2bq8hash_mapINS_11string_baseIcEES2_E8destructERNS_17hash_map_iteratorIS2_S2_Lb0EEE, symObjAddr: 0x7178, symBinAddr: 0x176E8, symSize: 0x3C }
  - { offsetInCU: 0x42D2, offset: 0x1868C, size: 0x8, addend: 0x0, symName: __ZN2bq8hash_mapINS_11string_baseIcEES2_E12destruct_keyERNS_17hash_map_iteratorIS2_S2_Lb0EEE, symObjAddr: 0x71B4, symBinAddr: 0x17724, symSize: 0x2C }
  - { offsetInCU: 0x4308, offset: 0x186C2, size: 0x8, addend: 0x0, symName: __ZN2bq8hash_mapINS_11string_baseIcEES2_E14destruct_valueERNS_17hash_map_iteratorIS2_S2_Lb0EEE, symObjAddr: 0x71E0, symBinAddr: 0x17750, symSize: 0x30 }
  - { offsetInCU: 0x26, offset: 0x187AE, size: 0x8, addend: 0x0, symName: __ZN2bq14property_value18create_from_stringERKNS_11string_baseIcEE, symObjAddr: 0x0, symBinAddr: 0x17780, symSize: 0x130 }
  - { offsetInCU: 0x267F, offset: 0x1AE07, size: 0x8, addend: 0x0, symName: __ZN2bqL30trans_parson_to_property_valueERNS_14property_valueENS_11string_baseIcEERKS3_, symObjAddr: 0x2C8, symBinAddr: 0x17924, symSize: 0x260 }
  - { offsetInCU: 0x2720, offset: 0x1AEA8, size: 0x8, addend: 0x0, symName: __ZN2bqL19serialize_recursiveENS_11string_baseIcEERKNS_14property_valueE, symObjAddr: 0x72C, symBinAddr: 0x17C74, symSize: 0x6B8 }
  - { offsetInCU: 0x284B, offset: 0x1AFD3, size: 0x8, addend: 0x0, symName: __ZN2bqneINS_11string_baseIcEENS_10unique_ptrINS_14property_valueEEELb0ELb0EEEbRKNS_17hash_map_iteratorIT_T0_XT1_EEERKNS6_IS7_S8_XT2_EEE, symObjAddr: 0x19A4, symBinAddr: 0x18A10, symSize: 0x34 }
  - { offsetInCU: 0x28AB, offset: 0x1B033, size: 0x8, addend: 0x0, symName: __ZN2bq4moveIRbEEONS_16remove_referenceIT_E4typeEOS3_, symObjAddr: 0x1D9C, symBinAddr: 0x18E08, symSize: 0x14 }
  - { offsetInCU: 0x28E0, offset: 0x1B068, size: 0x8, addend: 0x0, symName: __ZN2bq4moveIRdEEONS_16remove_referenceIT_E4typeEOS3_, symObjAddr: 0x1E48, symBinAddr: 0x18EB4, symSize: 0x14 }
  - { offsetInCU: 0x2915, offset: 0x1B09D, size: 0x8, addend: 0x0, symName: __ZN2bq4moveIRxEEONS_16remove_referenceIT_E4typeEOS3_, symObjAddr: 0x1EF4, symBinAddr: 0x18F60, symSize: 0x14 }
  - { offsetInCU: 0x294A, offset: 0x1B0D2, size: 0x8, addend: 0x0, symName: __ZN2bq4moveIRNS_5arrayINS_10unique_ptrINS_14property_valueEEELm0EEEEEONS_16remove_referenceIT_E4typeEOS8_, symObjAddr: 0x1FE8, symBinAddr: 0x1900C, symSize: 0x14 }
  - { offsetInCU: 0x297F, offset: 0x1B107, size: 0x8, addend: 0x0, symName: __ZN2bq4moveIRNS_8hash_mapINS_11string_baseIcEENS_10unique_ptrINS_14property_valueEEEEEEEONS_16remove_referenceIT_E4typeEOSA_, symObjAddr: 0x2030, symBinAddr: 0x19054, symSize: 0x14 }
  - { offsetInCU: 0x29B4, offset: 0x1B13C, size: 0x8, addend: 0x0, symName: __ZN2bq4moveIRNS_14property_valueEEEONS_16remove_referenceIT_E4typeEOS4_, symObjAddr: 0x2960, symBinAddr: 0x19910, symSize: 0x14 }
  - { offsetInCU: 0x29E9, offset: 0x1B171, size: 0x8, addend: 0x0, symName: __ZN2bq4moveINS_8hash_mapINS_11string_baseIcEENS_10unique_ptrINS_14property_valueEEEEEEEONS_16remove_referenceIT_E4typeEOS9_, symObjAddr: 0x2C84, symBinAddr: 0x19C34, symSize: 0x14 }
  - { offsetInCU: 0x2A1E, offset: 0x1B1A6, size: 0x8, addend: 0x0, symName: __ZN2bqeqINS_11string_baseIcEENS_10unique_ptrINS_14property_valueEEELb0ELb0EEEbRKNS_17hash_map_iteratorIT_T0_XT1_EEERKNS6_IS7_S8_XT2_EEE, symObjAddr: 0x2C98, symBinAddr: 0x19C48, symSize: 0xE4 }
  - { offsetInCU: 0x2AB3, offset: 0x1B23B, size: 0x8, addend: 0x0, symName: __ZN2bq4moveINS_5arrayINS_10unique_ptrINS_14property_valueEEELm0EEEEEONS_16remove_referenceIT_E4typeEOS7_, symObjAddr: 0x3698, symBinAddr: 0x19F60, symSize: 0x14 }
  - { offsetInCU: 0x2AE8, offset: 0x1B270, size: 0x8, addend: 0x0, symName: __ZN2bq4moveINS_14property_valueEEEONS_16remove_referenceIT_E4typeEOS3_, symObjAddr: 0x5068, symBinAddr: 0x1A7F8, symSize: 0x14 }
  - { offsetInCU: 0x2B1D, offset: 0x1B2A5, size: 0x8, addend: 0x0, symName: __ZN2bqL23parse_to_property_valueERNS_14property_valueENS_11string_baseIcEERKS3_, symObjAddr: 0x507C, symBinAddr: 0x1A80C, symSize: 0x4F0 }
  - { offsetInCU: 0x2C1F, offset: 0x1B3A7, size: 0x8, addend: 0x0, symName: __ZN2bqL15parse_array_keyENS_11string_baseIcEE, symObjAddr: 0x67C4, symBinAddr: 0x1ACFC, symSize: 0x60 }
  - { offsetInCU: 0x2C58, offset: 0x1B3E0, size: 0x8, addend: 0x0, symName: __ZN2bqL17parse_array_valueENS_11string_baseIcEE, symObjAddr: 0x6868, symBinAddr: 0x1ADA0, symSize: 0xBC }
  - { offsetInCU: 0x2C85, offset: 0x1B40D, size: 0x8, addend: 0x0, symName: __ZN2bqL18parse_number_valueERdPKc, symObjAddr: 0x69FC, symBinAddr: 0x1AE5C, symSize: 0x160 }
  - { offsetInCU: 0x2CDB, offset: 0x1B463, size: 0x8, addend: 0x0, symName: __ZN2bqL19parse_boolean_valueERbPKc, symObjAddr: 0x6B5C, symBinAddr: 0x1AFBC, symSize: 0xD4 }
  - { offsetInCU: 0x2D31, offset: 0x1B4B9, size: 0x8, addend: 0x0, symName: __ZN2bqL16parse_null_valueEPKc, symObjAddr: 0x6C30, symBinAddr: 0x1B090, symSize: 0x78 }
  - { offsetInCU: 0x2D6B, offset: 0x1B4F3, size: 0x8, addend: 0x0, symName: __ZN2bq7forwardINS_14property_valueEEEOT_RNS_16remove_referenceIS2_E4typeE, symObjAddr: 0x6D6C, symBinAddr: 0x1B1CC, symSize: 0x14 }
  - { offsetInCU: 0x2DA0, offset: 0x1B528, size: 0x8, addend: 0x0, symName: __ZN2bqL10is_decimalEPKcm, symObjAddr: 0x6DF4, symBinAddr: 0x1B1E0, symSize: 0x158 }
  - { offsetInCU: 0x2E90, offset: 0x1B618, size: 0x8, addend: 0x0, symName: __ZN2bq7forwardIPNS_14property_valueEEEOT_RNS_16remove_referenceIS3_E4typeE, symObjAddr: 0x9078, symBinAddr: 0x1BDBC, symSize: 0x14 }
  - { offsetInCU: 0x2EC5, offset: 0x1B64D, size: 0x8, addend: 0x0, symName: __ZN2bqgeINS_10unique_ptrINS_14property_valueEEES3_NS_5arrayIS3_Lm0EEES5_EEbRKNS_14array_iteratorIT_T1_EERKNS6_IT0_T2_EE, symObjAddr: 0x908C, symBinAddr: 0x1BDD0, symSize: 0xA0 }
  - { offsetInCU: 0x2F23, offset: 0x1B6AB, size: 0x8, addend: 0x0, symName: __ZN2bqleINS_10unique_ptrINS_14property_valueEEES3_NS_5arrayIS3_Lm0EEES5_EEbRKNS_14array_iteratorIT_T1_EERKNS6_IT0_T2_EE, symObjAddr: 0x912C, symBinAddr: 0x1BE70, symSize: 0xA0 }
  - { offsetInCU: 0x2F81, offset: 0x1B709, size: 0x8, addend: 0x0, symName: __ZN2bqmiINS_10unique_ptrINS_14property_valueEEES3_NS_5arrayIS3_Lm0EEES5_EENS_14array_iteratorIT_T1_E9diff_typeERKS9_RKNS6_IT0_T2_EE, symObjAddr: 0x91CC, symBinAddr: 0x1BF10, symSize: 0xA0 }
  - { offsetInCU: 0x2FDF, offset: 0x1B767, size: 0x8, addend: 0x0, symName: __ZN2bq19_inner_forward_moveINS_10unique_ptrINS_14property_valueEEEEENS_9enable_ifIXntaasr2bq31is_trivially_copy_constructibleIT_EE5valuesr2bq31is_trivially_move_constructibleIS5_EE5valueEvE4typeEPS5_S8_m, symObjAddr: 0x9284, symBinAddr: 0x1BFC8, symSize: 0x11C }
  - { offsetInCU: 0x309A, offset: 0x1B822, size: 0x8, addend: 0x0, symName: __ZN2bq7forwardINS_10unique_ptrINS_14property_valueEEEEEOT_RNS_16remove_referenceIS4_E4typeE, symObjAddr: 0x944C, symBinAddr: 0x1C190, symSize: 0x14 }
  - { offsetInCU: 0x30CF, offset: 0x1B857, size: 0x8, addend: 0x0, symName: __ZN2bq4moveIRNS_10unique_ptrINS_14property_valueEEEEEONS_16remove_referenceIT_E4typeEOS6_, symObjAddr: 0x9FE8, symBinAddr: 0x1CD2C, symSize: 0x14 }
  - { offsetInCU: 0x315A, offset: 0x1B8E2, size: 0x8, addend: 0x0, symName: __ZN2bq7forwardINS_8hash_mapINS_11string_baseIcEENS_10unique_ptrINS_14property_valueEEEEEEEOT_RNS_16remove_referenceIS8_E4typeE, symObjAddr: 0xAD08, symBinAddr: 0x1D8A8, symSize: 0x14 }
  - { offsetInCU: 0x318F, offset: 0x1B917, size: 0x8, addend: 0x0, symName: __ZN2bq7forwardINS_5arrayINS_10unique_ptrINS_14property_valueEEELm0EEEEEOT_RNS_16remove_referenceIS6_E4typeE, symObjAddr: 0xB26C, symBinAddr: 0x1D9B8, symSize: 0x14 }
  - { offsetInCU: 0x31C4, offset: 0x1B94C, size: 0x8, addend: 0x0, symName: __ZN2bq15_inner_mem_copyINS_10unique_ptrINS_14property_valueEEEEENS_9enable_ifIXntaasr2bq31is_trivially_copy_constructibleIT_EE5valuesr2bq31is_trivially_move_constructibleIS5_EE5valueEvE4typeEPS5_S8_m, symObjAddr: 0xB2EC, symBinAddr: 0x1DA38, symSize: 0xB4 }
  - { offsetInCU: 0x3236, offset: 0x1B9BE, size: 0x8, addend: 0x0, symName: __ZN2bq7forwardIRbEEOT_RNS_16remove_referenceIS2_E4typeE, symObjAddr: 0xB69C, symBinAddr: 0x1DAEC, symSize: 0x14 }
  - { offsetInCU: 0x326B, offset: 0x1B9F3, size: 0x8, addend: 0x0, symName: __ZN2bq7forwardIRdEEOT_RNS_16remove_referenceIS2_E4typeE, symObjAddr: 0xB6B0, symBinAddr: 0x1DB00, symSize: 0x14 }
  - { offsetInCU: 0x32A0, offset: 0x1BA28, size: 0x8, addend: 0x0, symName: __ZN2bq7forwardIRxEEOT_RNS_16remove_referenceIS2_E4typeE, symObjAddr: 0xB6C4, symBinAddr: 0x1DB14, symSize: 0x14 }
  - { offsetInCU: 0x374A, offset: 0x1BED2, size: 0x8, addend: 0x0, symName: __ZN2bq14property_value14get_null_valueEv, symObjAddr: 0x2168, symBinAddr: 0x1918C, symSize: 0x98 }
  - { offsetInCU: 0x376E, offset: 0x1BEF6, size: 0x8, addend: 0x0, symName: __ZZN2bq14property_value14get_null_valueEvE10null_value, symObjAddr: 0x2F858, symBinAddr: 0x68988, symSize: 0x0 }
  - { offsetInCU: 0x3787, offset: 0x1BF0F, size: 0x8, addend: 0x0, symName: __ZN2bq8hash_mapINS_11string_baseIcEENS_10unique_ptrINS_14property_valueEEEE12expand_nodesEj, symObjAddr: 0x9AFC, symBinAddr: 0x1C840, symSize: 0x2F0 }
  - { offsetInCU: 0x3DC6, offset: 0x1C54E, size: 0x8, addend: 0x0, symName: __ZN2bq14property_value18create_from_stringERKNS_11string_baseIcEE, symObjAddr: 0x0, symBinAddr: 0x17780, symSize: 0x130 }
  - { offsetInCU: 0x3E6A, offset: 0x1C5F2, size: 0x8, addend: 0x0, symName: __ZN2bq14property_valueC1ENS_24enum_property_value_typeE, symObjAddr: 0x130, symBinAddr: 0x178B0, symSize: 0x34 }
  - { offsetInCU: 0x3EB8, offset: 0x1C640, size: 0x8, addend: 0x0, symName: __ZN2bq8propertyC1Ev, symObjAddr: 0x164, symBinAddr: 0x178E4, symSize: 0x2C }
  - { offsetInCU: 0x3EE2, offset: 0x1C66A, size: 0x8, addend: 0x0, symName: __ZN2bq8property4mapsEv, symObjAddr: 0x190, symBinAddr: 0x17910, symSize: 0x14 }
  - { offsetInCU: 0x3F06, offset: 0x1C68E, size: 0x8, addend: 0x0, symName: __ZN2bq8propertyD1Ev, symObjAddr: 0x63C, symBinAddr: 0x17B84, symSize: 0x2C }
  - { offsetInCU: 0x3F30, offset: 0x1C6B8, size: 0x8, addend: 0x0, symName: __ZN2bq14property_valueD1Ev, symObjAddr: 0x668, symBinAddr: 0x17BB0, symSize: 0x2C }
  - { offsetInCU: 0x3F5B, offset: 0x1C6E3, size: 0x8, addend: 0x0, symName: __ZNK2bq14property_value9serializeEv, symObjAddr: 0x694, symBinAddr: 0x17BDC, symSize: 0x98 }
  - { offsetInCU: 0x3F90, offset: 0x1C718, size: 0x8, addend: 0x0, symName: __ZN2bq14property_value10clear_dataEv, symObjAddr: 0xE18, symBinAddr: 0x1832C, symSize: 0xBC }
  - { offsetInCU: 0x3FB6, offset: 0x1C73E, size: 0x8, addend: 0x0, symName: __ZNK2bq14property_value9as_stringEb, symObjAddr: 0xEEC, symBinAddr: 0x18400, symSize: 0x98 }
  - { offsetInCU: 0x3FE8, offset: 0x1C770, size: 0x8, addend: 0x0, symName: __ZNK2bq14property_value8as_arrayEb, symObjAddr: 0xF84, symBinAddr: 0x18498, symSize: 0x98 }
  - { offsetInCU: 0x401A, offset: 0x1C7A2, size: 0x8, addend: 0x0, symName: __ZN2bq5arrayINS_10unique_ptrINS_14property_valueEEELm0EED1Ev, symObjAddr: 0x101C, symBinAddr: 0x18530, symSize: 0x2C }
  - { offsetInCU: 0x4044, offset: 0x1C7CC, size: 0x8, addend: 0x0, symName: __ZNK2bq14property_value9as_objectEb, symObjAddr: 0x1048, symBinAddr: 0x1855C, symSize: 0x98 }
  - { offsetInCU: 0x4076, offset: 0x1C7FE, size: 0x8, addend: 0x0, symName: __ZN2bq8hash_mapINS_11string_baseIcEENS_10unique_ptrINS_14property_valueEEEED1Ev, symObjAddr: 0x10E0, symBinAddr: 0x185F4, symSize: 0x2C }
  - { offsetInCU: 0x40A0, offset: 0x1C828, size: 0x8, addend: 0x0, symName: __ZNK2bq14property_valuecvbEv, symObjAddr: 0x1420, symBinAddr: 0x18620, symSize: 0x34 }
  - { offsetInCU: 0x40C4, offset: 0x1C84C, size: 0x8, addend: 0x0, symName: __ZN2bq14property_valueaSEb, symObjAddr: 0x1454, symBinAddr: 0x18654, symSize: 0x64 }
  - { offsetInCU: 0x40FA, offset: 0x1C882, size: 0x8, addend: 0x0, symName: __ZNK2bq14property_valuecvdEv, symObjAddr: 0x14B8, symBinAddr: 0x186B8, symSize: 0x30 }
  - { offsetInCU: 0x4121, offset: 0x1C8A9, size: 0x8, addend: 0x0, symName: __ZN2bq14property_valueaSEd, symObjAddr: 0x14E8, symBinAddr: 0x186E8, symSize: 0x5C }
  - { offsetInCU: 0x4157, offset: 0x1C8DF, size: 0x8, addend: 0x0, symName: __ZNK2bq14property_valuecvxEv, symObjAddr: 0x1544, symBinAddr: 0x18744, symSize: 0x30 }
  - { offsetInCU: 0x417E, offset: 0x1C906, size: 0x8, addend: 0x0, symName: __ZN2bq14property_valueaSEx, symObjAddr: 0x1574, symBinAddr: 0x18774, symSize: 0x60 }
  - { offsetInCU: 0x41B4, offset: 0x1C93C, size: 0x8, addend: 0x0, symName: __ZNK2bq14property_valuecvNS_11string_baseIcEEEv, symObjAddr: 0x15D4, symBinAddr: 0x187D4, symSize: 0x40 }
  - { offsetInCU: 0x41DB, offset: 0x1C963, size: 0x8, addend: 0x0, symName: __ZN2bq5arrayINS_10unique_ptrINS_14property_valueEEELm0EEC1Ev, symObjAddr: 0x169C, symBinAddr: 0x18814, symSize: 0x2C }
  - { offsetInCU: 0x4205, offset: 0x1C98D, size: 0x8, addend: 0x0, symName: __ZN2bq5arrayINS_10unique_ptrINS_14property_valueEEELm0EE5beginEv, symObjAddr: 0x16C8, symBinAddr: 0x18840, symSize: 0x34 }
  - { offsetInCU: 0x422C, offset: 0x1C9B4, size: 0x8, addend: 0x0, symName: __ZN2bq5arrayINS_10unique_ptrINS_14property_valueEEELm0EE3endEv, symObjAddr: 0x16FC, symBinAddr: 0x18874, symSize: 0x3C }
  - { offsetInCU: 0x4253, offset: 0x1C9DB, size: 0x8, addend: 0x0, symName: __ZN2bq10unique_ptrINS_14property_valueEEdeEv, symObjAddr: 0x17F0, symBinAddr: 0x188B0, symSize: 0x18 }
  - { offsetInCU: 0x427C, offset: 0x1CA04, size: 0x8, addend: 0x0, symName: __ZN2bq5arrayINS_10unique_ptrINS_14property_valueEEELm0EE9push_backIJPS2_EEEmDpOT_, symObjAddr: 0x1808, symBinAddr: 0x188C8, symSize: 0x58 }
  - { offsetInCU: 0x42BC, offset: 0x1CA44, size: 0x8, addend: 0x0, symName: __ZN2bq8hash_mapINS_11string_baseIcEENS_10unique_ptrINS_14property_valueEEEEC1Ej, symObjAddr: 0x18B4, symBinAddr: 0x18920, symSize: 0x34 }
  - { offsetInCU: 0x42F4, offset: 0x1CA7C, size: 0x8, addend: 0x0, symName: __ZN2bq8hash_mapINS_11string_baseIcEENS_10unique_ptrINS_14property_valueEEEE5beginEv, symObjAddr: 0x18E8, symBinAddr: 0x18954, symSize: 0x84 }
  - { offsetInCU: 0x431B, offset: 0x1CAA3, size: 0x8, addend: 0x0, symName: __ZN2bq8hash_mapINS_11string_baseIcEENS_10unique_ptrINS_14property_valueEEEE3endEv, symObjAddr: 0x196C, symBinAddr: 0x189D8, symSize: 0x38 }
  - { offsetInCU: 0x4342, offset: 0x1CACA, size: 0x8, addend: 0x0, symName: __ZN2bq17hash_map_iteratorINS_11string_baseIcEENS_10unique_ptrINS_14property_valueEEELb0EEdeEv, symObjAddr: 0x19D8, symBinAddr: 0x18A44, symSize: 0x34 }
  - { offsetInCU: 0x4368, offset: 0x1CAF0, size: 0x8, addend: 0x0, symName: __ZNK2bq7kv_pairINS_11string_baseIcEENS_10unique_ptrINS_14property_valueEEEE3keyEv, symObjAddr: 0x1A0C, symBinAddr: 0x18A78, symSize: 0x14 }
  - { offsetInCU: 0x438C, offset: 0x1CB14, size: 0x8, addend: 0x0, symName: __ZN2bq7kv_pairINS_11string_baseIcEENS_10unique_ptrINS_14property_valueEEEE5valueEv, symObjAddr: 0x1A20, symBinAddr: 0x18A8C, symSize: 0x18 }
  - { offsetInCU: 0x43B0, offset: 0x1CB38, size: 0x8, addend: 0x0, symName: __ZN2bq8hash_mapINS_11string_baseIcEENS_10unique_ptrINS_14property_valueEEEE3addIPS4_EENS_17hash_map_iteratorIS2_S5_Lb0EEERKS2_OT_, symObjAddr: 0x1A38, symBinAddr: 0x18AA4, symSize: 0x74 }
  - { offsetInCU: 0x4409, offset: 0x1CB91, size: 0x8, addend: 0x0, symName: __ZN2bq17hash_map_iteratorINS_11string_baseIcEENS_10unique_ptrINS_14property_valueEEELb0EEppEv, symObjAddr: 0x1AAC, symBinAddr: 0x18B18, symSize: 0x88 }
  - { offsetInCU: 0x442F, offset: 0x1CBB7, size: 0x8, addend: 0x0, symName: __ZN2bq14property_value14copy_data_fromEOS0_, symObjAddr: 0x1B34, symBinAddr: 0x18BA0, symSize: 0x250 }
  - { offsetInCU: 0x4465, offset: 0x1CBED, size: 0x8, addend: 0x0, symName: __ZNK2bq14property_value7as_boolEb, symObjAddr: 0x1DB0, symBinAddr: 0x18E1C, symSize: 0x98 }
  - { offsetInCU: 0x4497, offset: 0x1CC1F, size: 0x8, addend: 0x0, symName: __ZNK2bq14property_value10as_decimalEb, symObjAddr: 0x1E5C, symBinAddr: 0x18EC8, symSize: 0x98 }
  - { offsetInCU: 0x44C9, offset: 0x1CC51, size: 0x8, addend: 0x0, symName: __ZNK2bq14property_value11as_integralEb, symObjAddr: 0x1F08, symBinAddr: 0x18F74, symSize: 0x98 }
  - { offsetInCU: 0x44FB, offset: 0x1CC83, size: 0x8, addend: 0x0, symName: __ZN2bq5arrayINS_10unique_ptrINS_14property_valueEEELm0EEC1EOS4_, symObjAddr: 0x1FFC, symBinAddr: 0x19020, symSize: 0x34 }
  - { offsetInCU: 0x4534, offset: 0x1CCBC, size: 0x8, addend: 0x0, symName: __ZN2bq8hash_mapINS_11string_baseIcEENS_10unique_ptrINS_14property_valueEEEEC1EOS6_, symObjAddr: 0x2044, symBinAddr: 0x19068, symSize: 0x34 }
  - { offsetInCU: 0x456C, offset: 0x1CCF4, size: 0x8, addend: 0x0, symName: __ZN2bq14property_value21check_and_switch_typeENS_24enum_property_value_typeEb, symObjAddr: 0x2078, symBinAddr: 0x1909C, symSize: 0xF0 }
  - { offsetInCU: 0x45B1, offset: 0x1CD39, size: 0x8, addend: 0x0, symName: __ZN2bq14property_value19add_null_array_itemEv, symObjAddr: 0x2200, symBinAddr: 0x19224, symSize: 0x70 }
  - { offsetInCU: 0x45D8, offset: 0x1CD60, size: 0x8, addend: 0x0, symName: __ZNK2bq14property_value8is_arrayEv, symObjAddr: 0x2270, symBinAddr: 0x19294, symSize: 0x30 }
  - { offsetInCU: 0x45FC, offset: 0x1CD84, size: 0x8, addend: 0x0, symName: __ZN2bq14property_valueixEm, symObjAddr: 0x22A0, symBinAddr: 0x192C4, symSize: 0x154 }
  - { offsetInCU: 0x464F, offset: 0x1CDD7, size: 0x8, addend: 0x0, symName: __ZNK2bq5arrayINS_10unique_ptrINS_14property_valueEEELm0EE4sizeEv, symObjAddr: 0x23F4, symBinAddr: 0x19418, symSize: 0x18 }
  - { offsetInCU: 0x4676, offset: 0x1CDFE, size: 0x8, addend: 0x0, symName: __ZN2bq14property_valueixERKNS_11string_baseIcEE, symObjAddr: 0x2438, symBinAddr: 0x19430, symSize: 0x1E0 }
  - { offsetInCU: 0x46BC, offset: 0x1CE44, size: 0x8, addend: 0x0, symName: __ZN2bq14property_valueC2ENS_24enum_property_value_typeE, symObjAddr: 0x2618, symBinAddr: 0x19610, symSize: 0x1AC }
  - { offsetInCU: 0x46F6, offset: 0x1CE7E, size: 0x8, addend: 0x0, symName: __ZN2bq12aligned_typeIA56_cLj8EEC1Ev, symObjAddr: 0x27DC, symBinAddr: 0x197D4, symSize: 0x2C }
  - { offsetInCU: 0x471E, offset: 0x1CEA6, size: 0x8, addend: 0x0, symName: __ZN2bq14property_value15init_debug_ptrsEv, symObjAddr: 0x2808, symBinAddr: 0x19800, symSize: 0xB4 }
  - { offsetInCU: 0x4742, offset: 0x1CECA, size: 0x8, addend: 0x0, symName: __ZN2bq14property_valueC2EOS0_, symObjAddr: 0x2904, symBinAddr: 0x198B4, symSize: 0x5C }
  - { offsetInCU: 0x477C, offset: 0x1CF04, size: 0x8, addend: 0x0, symName: __ZN2bq14property_valueC1EOS0_, symObjAddr: 0x2974, symBinAddr: 0x19924, symSize: 0x34 }
  - { offsetInCU: 0x47B6, offset: 0x1CF3E, size: 0x8, addend: 0x0, symName: __ZN2bq14property_valueD2Ev, symObjAddr: 0x29A8, symBinAddr: 0x19958, symSize: 0x38 }
  - { offsetInCU: 0x47E1, offset: 0x1CF69, size: 0x8, addend: 0x0, symName: __ZN2bq12aligned_typeIA56_cLj8EED1Ev, symObjAddr: 0x29E0, symBinAddr: 0x19990, symSize: 0x2C }
  - { offsetInCU: 0x4809, offset: 0x1CF91, size: 0x8, addend: 0x0, symName: __ZNK2bq14property_valueixERKNS_11string_baseIcEE, symObjAddr: 0x2A0C, symBinAddr: 0x199BC, symSize: 0x9C }
  - { offsetInCU: 0x484E, offset: 0x1CFD6, size: 0x8, addend: 0x0, symName: __ZNK2bq14property_value9is_objectEv, symObjAddr: 0x2AA8, symBinAddr: 0x19A58, symSize: 0x30 }
  - { offsetInCU: 0x4872, offset: 0x1CFFA, size: 0x8, addend: 0x0, symName: __ZN2bq8hash_mapINS_11string_baseIcEENS_10unique_ptrINS_14property_valueEEEE4findERKS2_, symObjAddr: 0x2AD8, symBinAddr: 0x19A88, symSize: 0x74 }
  - { offsetInCU: 0x48B4, offset: 0x1D03C, size: 0x8, addend: 0x0, symName: __ZNK2bq17hash_map_iteratorINS_11string_baseIcEENS_10unique_ptrINS_14property_valueEEELb0EEcvbEv, symObjAddr: 0x2B4C, symBinAddr: 0x19AFC, symSize: 0x44 }
  - { offsetInCU: 0x48DA, offset: 0x1D062, size: 0x8, addend: 0x0, symName: __ZN2bq17hash_map_iteratorINS_11string_baseIcEENS_10unique_ptrINS_14property_valueEEELb0EEptEv, symObjAddr: 0x2B90, symBinAddr: 0x19B40, symSize: 0x34 }
  - { offsetInCU: 0x4900, offset: 0x1D088, size: 0x8, addend: 0x0, symName: __ZN2bq10unique_ptrINS_14property_valueEE3getEv, symObjAddr: 0x2BC4, symBinAddr: 0x19B74, symSize: 0x18 }
  - { offsetInCU: 0x4924, offset: 0x1D0AC, size: 0x8, addend: 0x0, symName: __ZN2bq14property_value22check_and_set_templateINS_8hash_mapINS_11string_baseIcEENS_10unique_ptrIS0_EEEES7_EEvOT_RT0_bNS_24enum_property_value_typeE, symObjAddr: 0x2BDC, symBinAddr: 0x19B8C, symSize: 0xA8 }
  - { offsetInCU: 0x4992, offset: 0x1D11A, size: 0x8, addend: 0x0, symName: __ZN2bq14array_iteratorINS_10unique_ptrINS_14property_valueEEENS_5arrayIS3_Lm0EEEEplEm, symObjAddr: 0x3414, symBinAddr: 0x19D2C, symSize: 0x44 }
  - { offsetInCU: 0x49D4, offset: 0x1D15C, size: 0x8, addend: 0x0, symName: __ZNK2bq14property_value7is_nullEv, symObjAddr: 0x34A8, symBinAddr: 0x19D70, symSize: 0x30 }
  - { offsetInCU: 0x49F8, offset: 0x1D180, size: 0x8, addend: 0x0, symName: __ZNK2bq14property_valueixEm, symObjAddr: 0x34D8, symBinAddr: 0x19DA0, symSize: 0xA4 }
  - { offsetInCU: 0x4A2E, offset: 0x1D1B6, size: 0x8, addend: 0x0, symName: __ZN2bq5arrayINS_10unique_ptrINS_14property_valueEEELm0EEixEm, symObjAddr: 0x357C, symBinAddr: 0x19E44, symSize: 0x74 }
  - { offsetInCU: 0x4A63, offset: 0x1D1EB, size: 0x8, addend: 0x0, symName: __ZN2bq14property_value22check_and_set_templateINS_5arrayINS_10unique_ptrIS0_EELm0EEES5_EEvOT_RT0_bNS_24enum_property_value_typeE, symObjAddr: 0x35F0, symBinAddr: 0x19EB8, symSize: 0xA8 }
  - { offsetInCU: 0x4AD1, offset: 0x1D259, size: 0x8, addend: 0x0, symName: __ZN2bq5arrayINS_10unique_ptrINS_14property_valueEEELm0EE12set_capacityEmb, symObjAddr: 0x36AC, symBinAddr: 0x19F74, symSize: 0x224 }
  - { offsetInCU: 0x4B40, offset: 0x1D2C8, size: 0x8, addend: 0x0, symName: __ZNK2bq14property_value18get_object_key_setEv, symObjAddr: 0x3948, symBinAddr: 0x1A198, symSize: 0x12C }
  - { offsetInCU: 0x4B86, offset: 0x1D30E, size: 0x8, addend: 0x0, symName: __ZNK2bq14property_value10array_sizeEv, symObjAddr: 0x3B24, symBinAddr: 0x1A2C4, symSize: 0x58 }
  - { offsetInCU: 0x4BAD, offset: 0x1D335, size: 0x8, addend: 0x0, symName: __ZNK2bq8hash_mapINS_11string_baseIcEENS_10unique_ptrINS_14property_valueEEEE4sizeEv, symObjAddr: 0x3BD4, symBinAddr: 0x1A31C, symSize: 0x18 }
  - { offsetInCU: 0x4BD3, offset: 0x1D35B, size: 0x8, addend: 0x0, symName: __ZN2bq14property_valueaSEOS0_, symObjAddr: 0x3C28, symBinAddr: 0x1A334, symSize: 0x44 }
  - { offsetInCU: 0x4C0E, offset: 0x1D396, size: 0x8, addend: 0x0, symName: __ZN2bq14property_value22check_and_set_templateIRbbEEvOT_RT0_bNS_24enum_property_value_typeE, symObjAddr: 0x3C6C, symBinAddr: 0x1A378, symSize: 0xB0 }
  - { offsetInCU: 0x4C81, offset: 0x1D409, size: 0x8, addend: 0x0, symName: __ZN2bq14property_value22check_and_set_templateIRddEEvOT_RT0_bNS_24enum_property_value_typeE, symObjAddr: 0x3D1C, symBinAddr: 0x1A428, symSize: 0xA8 }
  - { offsetInCU: 0x4CF4, offset: 0x1D47C, size: 0x8, addend: 0x0, symName: __ZN2bq14property_value22check_and_set_templateIRxxEEvOT_RT0_bNS_24enum_property_value_typeE, symObjAddr: 0x3DC4, symBinAddr: 0x1A4D0, symSize: 0xA8 }
  - { offsetInCU: 0x4D62, offset: 0x1D4EA, size: 0x8, addend: 0x0, symName: __ZN2bq14property_valueaSERKNS_11string_baseIcEE, symObjAddr: 0x3F98, symBinAddr: 0x1A578, symSize: 0x60 }
  - { offsetInCU: 0x4D98, offset: 0x1D520, size: 0x8, addend: 0x0, symName: __ZN2bq14property_value22check_and_set_templateIRKNS_11string_baseIcEES3_EEvOT_RT0_bNS_24enum_property_value_typeE, symObjAddr: 0x3FF8, symBinAddr: 0x1A5D8, symSize: 0xA8 }
  - { offsetInCU: 0x4E06, offset: 0x1D58E, size: 0x8, addend: 0x0, symName: __ZN2bq8propertyC2Ev, symObjAddr: 0x40A0, symBinAddr: 0x1A680, symSize: 0x3C }
  - { offsetInCU: 0x4E30, offset: 0x1D5B8, size: 0x8, addend: 0x0, symName: __ZN2bq8hash_mapINS_11string_baseIcEES2_EC1Ej, symObjAddr: 0x40DC, symBinAddr: 0x1A6BC, symSize: 0x34 }
  - { offsetInCU: 0x4E68, offset: 0x1D5F0, size: 0x8, addend: 0x0, symName: __ZN2bq8hash_mapINS_11string_baseIcEES2_EC2Ej, symObjAddr: 0x4110, symBinAddr: 0x1A6F0, symSize: 0x78 }
  - { offsetInCU: 0x4EA0, offset: 0x1D628, size: 0x8, addend: 0x0, symName: __ZN2bq8hash_mapINS_11string_baseIcEES2_E22value_node_buffer_headIjEC1Ev, symObjAddr: 0x4188, symBinAddr: 0x1A768, symSize: 0x2C }
  - { offsetInCU: 0x4EC8, offset: 0x1D650, size: 0x8, addend: 0x0, symName: __ZN2bq8hash_mapINS_11string_baseIcEES2_E22value_node_buffer_headINS3_10value_nodeEEC1Ev, symObjAddr: 0x41B4, symBinAddr: 0x1A794, symSize: 0x2C }
  - { offsetInCU: 0x4EF0, offset: 0x1D678, size: 0x8, addend: 0x0, symName: __ZN2bq8hash_mapINS_11string_baseIcEES2_E22value_node_buffer_headIjEC2Ev, symObjAddr: 0x4958, symBinAddr: 0x1A7C0, symSize: 0x1C }
  - { offsetInCU: 0x4F18, offset: 0x1D6A0, size: 0x8, addend: 0x0, symName: __ZN2bq8hash_mapINS_11string_baseIcEES2_E22value_node_buffer_headINS3_10value_nodeEEC2Ev, symObjAddr: 0x4974, symBinAddr: 0x1A7DC, symSize: 0x1C }
  - { offsetInCU: 0x4F40, offset: 0x1D6C8, size: 0x8, addend: 0x0, symName: __ZN2bq14property_value14add_array_itemIS0_EENS_9enable_ifIXsr2bq7is_sameINS_5decayIT_E4typeES0_EE5valueERS0_E4typeEOS4_, symObjAddr: 0x6824, symBinAddr: 0x1AD5C, symSize: 0x44 }
  - { offsetInCU: 0x4F89, offset: 0x1D711, size: 0x8, addend: 0x0, symName: __ZNK2bq11string_baseIcE4findERKS1_, symObjAddr: 0x6CA8, symBinAddr: 0x1B108, symSize: 0xC4 }
  - { offsetInCU: 0x4FCD, offset: 0x1D755, size: 0x8, addend: 0x0, symName: __Z6strchrB8un170006Ua9enable_ifIXLb1EEEPKci, symObjAddr: 0x6F4C, symBinAddr: 0x1B338, symSize: 0x2C }
  - { offsetInCU: 0x5007, offset: 0x1D78F, size: 0x8, addend: 0x0, symName: __ZN2bq8propertyD2Ev, symObjAddr: 0x79A4, symBinAddr: 0x1B364, symSize: 0x38 }
  - { offsetInCU: 0x5031, offset: 0x1D7B9, size: 0x8, addend: 0x0, symName: __ZN2bq8hash_mapINS_11string_baseIcEES2_ED1Ev, symObjAddr: 0x79DC, symBinAddr: 0x1B39C, symSize: 0x2C }
  - { offsetInCU: 0x505B, offset: 0x1D7E3, size: 0x8, addend: 0x0, symName: __ZN2bq8hash_mapINS_11string_baseIcEES2_ED2Ev, symObjAddr: 0x7A08, symBinAddr: 0x1B3C8, symSize: 0x2C }
  - { offsetInCU: 0x5085, offset: 0x1D80D, size: 0x8, addend: 0x0, symName: __ZN2bq8hash_mapINS_11string_baseIcEES2_E5resetEv, symObjAddr: 0x7A34, symBinAddr: 0x1B3F4, symSize: 0xF8 }
  - { offsetInCU: 0x50C9, offset: 0x1D851, size: 0x8, addend: 0x0, symName: __ZNK2bq14property_value7is_boolEv, symObjAddr: 0x7E28, symBinAddr: 0x1B4EC, symSize: 0x30 }
  - { offsetInCU: 0x50ED, offset: 0x1D875, size: 0x8, addend: 0x0, symName: __ZNK2bq14property_value10is_decimalEv, symObjAddr: 0x7E58, symBinAddr: 0x1B51C, symSize: 0x30 }
  - { offsetInCU: 0x5111, offset: 0x1D899, size: 0x8, addend: 0x0, symName: __ZNK2bq14property_value11is_integralEv, symObjAddr: 0x7E88, symBinAddr: 0x1B54C, symSize: 0x30 }
  - { offsetInCU: 0x5135, offset: 0x1D8BD, size: 0x8, addend: 0x0, symName: __ZNK2bq14property_value9is_stringEv, symObjAddr: 0x7EB8, symBinAddr: 0x1B57C, symSize: 0x30 }
  - { offsetInCU: 0x5159, offset: 0x1D8E1, size: 0x8, addend: 0x0, symName: __ZNK2bq14property_value8get_typeEv, symObjAddr: 0x8220, symBinAddr: 0x1B5AC, symSize: 0x18 }
  - { offsetInCU: 0x517D, offset: 0x1D905, size: 0x8, addend: 0x0, symName: __ZNK2bq12aligned_typeIA56_cLj8EE3getEv, symObjAddr: 0x8250, symBinAddr: 0x1B5C4, symSize: 0x24 }
  - { offsetInCU: 0x51A1, offset: 0x1D929, size: 0x8, addend: 0x0, symName: __ZNK2bq12aligned_typeIA56_cLj8EE8get_addrEv, symObjAddr: 0x8274, symBinAddr: 0x1B5E8, symSize: 0x3C }
  - { offsetInCU: 0x51C5, offset: 0x1D94D, size: 0x8, addend: 0x0, symName: __ZNK2bq12aligned_typeIA56_cLj8EE6offsetEv, symObjAddr: 0x82B0, symBinAddr: 0x1B624, symSize: 0x1C }
  - { offsetInCU: 0x51E9, offset: 0x1D971, size: 0x8, addend: 0x0, symName: __ZN2bq5arrayINS_10unique_ptrINS_14property_valueEEELm0EED2Ev, symObjAddr: 0x88FC, symBinAddr: 0x1B640, symSize: 0x2C }
  - { offsetInCU: 0x5213, offset: 0x1D99B, size: 0x8, addend: 0x0, symName: __ZN2bq5arrayINS_10unique_ptrINS_14property_valueEEELm0EE5resetIS3_EENS_9enable_ifIXntsr2bq6is_podIT_EE5valueEvE4typeEv, symObjAddr: 0x8928, symBinAddr: 0x1B66C, symSize: 0x6C }
  - { offsetInCU: 0x5248, offset: 0x1D9D0, size: 0x8, addend: 0x0, symName: __ZN2bq23object_array_destructorINS_10unique_ptrINS_14property_valueEEEE8destructEPS3_m, symObjAddr: 0x8994, symBinAddr: 0x1B6D8, symSize: 0x2C }
  - { offsetInCU: 0x5278, offset: 0x1DA00, size: 0x8, addend: 0x0, symName: __ZN2bq23object_array_destructorINS_10unique_ptrINS_14property_valueEEEE15destructor_implIS3_NS4_27non_trivial_destructor_typeEE8destructEPS3_m, symObjAddr: 0x89C0, symBinAddr: 0x1B704, symSize: 0x7C }
  - { offsetInCU: 0x52C4, offset: 0x1DA4C, size: 0x8, addend: 0x0, symName: __ZN2bq17object_destructorINS_10unique_ptrINS_14property_valueEEEE8destructEPS3_, symObjAddr: 0x8A3C, symBinAddr: 0x1B780, symSize: 0x24 }
  - { offsetInCU: 0x52E6, offset: 0x1DA6E, size: 0x8, addend: 0x0, symName: __ZN2bq17object_destructorINS_10unique_ptrINS_14property_valueEEEE15destructor_implIS3_NS4_27non_trivial_destructor_typeEE8destructEPS3_, symObjAddr: 0x8A60, symBinAddr: 0x1B7A4, symSize: 0x3C }
  - { offsetInCU: 0x5308, offset: 0x1DA90, size: 0x8, addend: 0x0, symName: __ZN2bq10unique_ptrINS_14property_valueEED1Ev, symObjAddr: 0x8A9C, symBinAddr: 0x1B7E0, symSize: 0x2C }
  - { offsetInCU: 0x5330, offset: 0x1DAB8, size: 0x8, addend: 0x0, symName: __ZN2bq10unique_ptrINS_14property_valueEED2Ev, symObjAddr: 0x8AC8, symBinAddr: 0x1B80C, symSize: 0x2C }
  - { offsetInCU: 0x5358, offset: 0x1DAE0, size: 0x8, addend: 0x0, symName: __ZN2bq10unique_ptrINS_14property_valueEE5resetEv, symObjAddr: 0x8AF4, symBinAddr: 0x1B838, symSize: 0x74 }
  - { offsetInCU: 0x537C, offset: 0x1DB04, size: 0x8, addend: 0x0, symName: __ZN2bq8hash_mapINS_11string_baseIcEENS_10unique_ptrINS_14property_valueEEEED2Ev, symObjAddr: 0x8B68, symBinAddr: 0x1B8AC, symSize: 0x2C }
  - { offsetInCU: 0x53A6, offset: 0x1DB2E, size: 0x8, addend: 0x0, symName: __ZN2bq8hash_mapINS_11string_baseIcEENS_10unique_ptrINS_14property_valueEEEE5resetEv, symObjAddr: 0x8B94, symBinAddr: 0x1B8D8, symSize: 0xF8 }
  - { offsetInCU: 0x53EA, offset: 0x1DB72, size: 0x8, addend: 0x0, symName: __ZN2bq8hash_mapINS_11string_baseIcEENS_10unique_ptrINS_14property_valueEEEE8destructERNS_17hash_map_iteratorIS2_S5_Lb0EEE, symObjAddr: 0x8C8C, symBinAddr: 0x1B9D0, symSize: 0x3C }
  - { offsetInCU: 0x5420, offset: 0x1DBA8, size: 0x8, addend: 0x0, symName: __ZN2bq8hash_mapINS_11string_baseIcEENS_10unique_ptrINS_14property_valueEEEE12destruct_keyERNS_17hash_map_iteratorIS2_S5_Lb0EEE, symObjAddr: 0x8CC8, symBinAddr: 0x1BA0C, symSize: 0x2C }
  - { offsetInCU: 0x5456, offset: 0x1DBDE, size: 0x8, addend: 0x0, symName: __ZN2bq8hash_mapINS_11string_baseIcEENS_10unique_ptrINS_14property_valueEEEE14destruct_valueERNS_17hash_map_iteratorIS2_S5_Lb0EEE, symObjAddr: 0x8CF4, symBinAddr: 0x1BA38, symSize: 0x30 }
  - { offsetInCU: 0x548B, offset: 0x1DC13, size: 0x8, addend: 0x0, symName: __ZN2bq5arrayINS_10unique_ptrINS_14property_valueEEELm0EEC2Ev, symObjAddr: 0x8D24, symBinAddr: 0x1BA68, symSize: 0x20 }
  - { offsetInCU: 0x54BA, offset: 0x1DC42, size: 0x8, addend: 0x0, symName: __ZN2bq14array_iteratorINS_10unique_ptrINS_14property_valueEEENS_5arrayIS3_Lm0EEEEC1IS3_EEPT_PKS5_, symObjAddr: 0x8D44, symBinAddr: 0x1BA88, symSize: 0x3C }
  - { offsetInCU: 0x5509, offset: 0x1DC91, size: 0x8, addend: 0x0, symName: __ZN2bq14array_iteratorINS_10unique_ptrINS_14property_valueEEENS_5arrayIS3_Lm0EEEEC2IS3_EEPT_PKS5_, symObjAddr: 0x8D80, symBinAddr: 0x1BAC4, symSize: 0x70 }
  - { offsetInCU: 0x5558, offset: 0x1DCE0, size: 0x8, addend: 0x0, symName: __ZN2bq5arrayINS_10unique_ptrINS_14property_valueEEELm0EE6insertIJPS2_EEEvNS_14array_iteratorIS3_S4_EEDpOT_, symObjAddr: 0x8DF0, symBinAddr: 0x1BB34, symSize: 0x288 }
  - { offsetInCU: 0x55E6, offset: 0x1DD6E, size: 0x8, addend: 0x0, symName: __ZNK2bq14array_iteratorINS_10unique_ptrINS_14property_valueEEENS_5arrayIS3_Lm0EEEEcvPS3_Ev, symObjAddr: 0x926C, symBinAddr: 0x1BFB0, symSize: 0x18 }
  - { offsetInCU: 0x560C, offset: 0x1DD94, size: 0x8, addend: 0x0, symName: __ZN2bq5arrayINS_10unique_ptrINS_14property_valueEEELm0EE8destructENS_14array_iteratorIS3_S4_EE, symObjAddr: 0x93A0, symBinAddr: 0x1C0E4, symSize: 0x34 }
  - { offsetInCU: 0x5641, offset: 0x1DDC9, size: 0x8, addend: 0x0, symName: __ZN2bq5arrayINS_10unique_ptrINS_14property_valueEEELm0EE9constructIJPS2_EEEvNS_14array_iteratorIS3_S4_EEDpOT_, symObjAddr: 0x93D4, symBinAddr: 0x1C118, symSize: 0x78 }
  - { offsetInCU: 0x569E, offset: 0x1DE26, size: 0x8, addend: 0x0, symName: __ZN2bq10unique_ptrINS_14property_valueEEaSIS1_EERS2_ONS0_IT_EE, symObjAddr: 0x9460, symBinAddr: 0x1C1A4, symSize: 0x6C }
  - { offsetInCU: 0x56DA, offset: 0x1DE62, size: 0x8, addend: 0x0, symName: __ZN2bq10unique_ptrINS_14property_valueEEC1IS1_EEONS0_IT_EE, symObjAddr: 0x94CC, symBinAddr: 0x1C210, symSize: 0x34 }
  - { offsetInCU: 0x5719, offset: 0x1DEA1, size: 0x8, addend: 0x0, symName: __ZN2bq10unique_ptrINS_14property_valueEEC2IS1_EEONS0_IT_EE, symObjAddr: 0x9500, symBinAddr: 0x1C244, symSize: 0x2C }
  - { offsetInCU: 0x5758, offset: 0x1DEE0, size: 0x8, addend: 0x0, symName: __ZNK2bq14array_iteratorINS_10unique_ptrINS_14property_valueEEENS_5arrayIS3_Lm0EEEEptEv, symObjAddr: 0x952C, symBinAddr: 0x1C270, symSize: 0x18 }
  - { offsetInCU: 0x577E, offset: 0x1DF06, size: 0x8, addend: 0x0, symName: __ZN2bq10unique_ptrINS_14property_valueEEC1EPS1_, symObjAddr: 0x9544, symBinAddr: 0x1C288, symSize: 0x34 }
  - { offsetInCU: 0x57B4, offset: 0x1DF3C, size: 0x8, addend: 0x0, symName: __ZN2bq10unique_ptrINS_14property_valueEEC2EPS1_, symObjAddr: 0x9578, symBinAddr: 0x1C2BC, symSize: 0x20 }
  - { offsetInCU: 0x57EA, offset: 0x1DF72, size: 0x8, addend: 0x0, symName: __ZN2bq8hash_mapINS_11string_baseIcEENS_10unique_ptrINS_14property_valueEEEEC2Ej, symObjAddr: 0x9598, symBinAddr: 0x1C2DC, symSize: 0x78 }
  - { offsetInCU: 0x5822, offset: 0x1DFAA, size: 0x8, addend: 0x0, symName: __ZN2bq8hash_mapINS_11string_baseIcEENS_10unique_ptrINS_14property_valueEEEE22value_node_buffer_headIjEC1Ev, symObjAddr: 0x9610, symBinAddr: 0x1C354, symSize: 0x2C }
  - { offsetInCU: 0x584A, offset: 0x1DFD2, size: 0x8, addend: 0x0, symName: __ZN2bq8hash_mapINS_11string_baseIcEENS_10unique_ptrINS_14property_valueEEEE22value_node_buffer_headINS6_10value_nodeEEC1Ev, symObjAddr: 0x963C, symBinAddr: 0x1C380, symSize: 0x2C }
  - { offsetInCU: 0x5872, offset: 0x1DFFA, size: 0x8, addend: 0x0, symName: __ZN2bq8hash_mapINS_11string_baseIcEENS_10unique_ptrINS_14property_valueEEEE14expand_bucketsEj, symObjAddr: 0x9668, symBinAddr: 0x1C3AC, symSize: 0x494 }
  - { offsetInCU: 0x5977, offset: 0x1E0FF, size: 0x8, addend: 0x0, symName: __ZNK2bq8hash_mapINS_11string_baseIcEENS_10unique_ptrINS_14property_valueEEEE12buckets_sizeEv, symObjAddr: 0x9DEC, symBinAddr: 0x1CB30, symSize: 0x24 }
  - { offsetInCU: 0x599D, offset: 0x1E125, size: 0x8, addend: 0x0, symName: __ZN2bq8hash_mapINS_11string_baseIcEENS_10unique_ptrINS_14property_valueEEEE22value_node_buffer_headIjEC2Ev, symObjAddr: 0x9E10, symBinAddr: 0x1CB54, symSize: 0x1C }
  - { offsetInCU: 0x59C5, offset: 0x1E14D, size: 0x8, addend: 0x0, symName: __ZN2bq8hash_mapINS_11string_baseIcEENS_10unique_ptrINS_14property_valueEEEE22value_node_buffer_headINS6_10value_nodeEEC2Ev, symObjAddr: 0x9E2C, symBinAddr: 0x1CB70, symSize: 0x1C }
  - { offsetInCU: 0x59ED, offset: 0x1E175, size: 0x8, addend: 0x0, symName: __ZNK2bq8hash_mapINS_11string_baseIcEENS_10unique_ptrINS_14property_valueEEEE22value_node_buffer_headIjE4sizeEv, symObjAddr: 0x9E48, symBinAddr: 0x1CB8C, symSize: 0x18 }
  - { offsetInCU: 0x5A11, offset: 0x1E199, size: 0x8, addend: 0x0, symName: __ZN2bq8hash_mapINS_11string_baseIcEENS_10unique_ptrINS_14property_valueEEEE22value_node_buffer_headIjEixEj, symObjAddr: 0x9E60, symBinAddr: 0x1CBA4, symSize: 0x74 }
  - { offsetInCU: 0x5A43, offset: 0x1E1CB, size: 0x8, addend: 0x0, symName: __ZN2bq8hash_mapINS_11string_baseIcEENS_10unique_ptrINS_14property_valueEEEE22value_node_buffer_headINS6_10value_nodeEEixEj, symObjAddr: 0x9ED4, symBinAddr: 0x1CC18, symSize: 0x7C }
  - { offsetInCU: 0x5A75, offset: 0x1E1FD, size: 0x8, addend: 0x0, symName: __ZNK2bq8hash_mapINS_11string_baseIcEENS_10unique_ptrINS_14property_valueEEEE23get_bucket_index_by_keyERKS2_, symObjAddr: 0x9F50, symBinAddr: 0x1CC94, symSize: 0x44 }
  - { offsetInCU: 0x5ABA, offset: 0x1E242, size: 0x8, addend: 0x0, symName: __ZNK2bq8hash_mapINS_11string_baseIcEENS_10unique_ptrINS_14property_valueEEEE24get_bucket_index_by_hashEy, symObjAddr: 0x9F94, symBinAddr: 0x1CCD8, symSize: 0x3C }
  - { offsetInCU: 0x5AF0, offset: 0x1E278, size: 0x8, addend: 0x0, symName: __ZNK2bq8hash_mapINS_11string_baseIcEENS_10unique_ptrINS_14property_valueEEEE22value_node_buffer_headINS6_10value_nodeEE4sizeEv, symObjAddr: 0x9FD0, symBinAddr: 0x1CD14, symSize: 0x18 }
  - { offsetInCU: 0x5B14, offset: 0x1E29C, size: 0x8, addend: 0x0, symName: __ZN2bq17hash_map_iteratorINS_11string_baseIcEENS_10unique_ptrINS_14property_valueEEELb0EEC1EPNS_8hash_mapIS2_S5_EEjj, symObjAddr: 0x9FFC, symBinAddr: 0x1CD40, symSize: 0x44 }
  - { offsetInCU: 0x5B66, offset: 0x1E2EE, size: 0x8, addend: 0x0, symName: __ZN2bq17hash_map_iteratorINS_11string_baseIcEENS_10unique_ptrINS_14property_valueEEELb0EEC2EPNS_8hash_mapIS2_S5_EEjj, symObjAddr: 0xA040, symBinAddr: 0x1CD84, symSize: 0x38 }
  - { offsetInCU: 0x5BB8, offset: 0x1E340, size: 0x8, addend: 0x0, symName: __ZNK2bq8hash_mapINS_11string_baseIcEENS_10unique_ptrINS_14property_valueEEEE19get_next_node_indexEj, symObjAddr: 0xA078, symBinAddr: 0x1CDBC, symSize: 0x68 }
  - { offsetInCU: 0x5BEE, offset: 0x1E376, size: 0x8, addend: 0x0, symName: __ZNK2bq8hash_mapINS_11string_baseIcEENS_10unique_ptrINS_14property_valueEEEE22value_node_buffer_headINS6_10value_nodeEEixEj, symObjAddr: 0xA0E0, symBinAddr: 0x1CE24, symSize: 0x7C }
  - { offsetInCU: 0x5C20, offset: 0x1E3A8, size: 0x8, addend: 0x0, symName: __ZN2bq8hash_mapINS_11string_baseIcEENS_10unique_ptrINS_14property_valueEEEE17alloc_node_by_keyERKS2_, symObjAddr: 0xA15C, symBinAddr: 0x1CEA0, symSize: 0x304 }
  - { offsetInCU: 0x5D18, offset: 0x1E4A0, size: 0x8, addend: 0x0, symName: __ZN2bq8hash_mapINS_11string_baseIcEENS_10unique_ptrINS_14property_valueEEEE15construct_valueIPS4_EEvRNS_17hash_map_iteratorIS2_S5_Lb0EEEOT_, symObjAddr: 0xA460, symBinAddr: 0x1D1A4, symSize: 0x70 }
  - { offsetInCU: 0x5D64, offset: 0x1E4EC, size: 0x8, addend: 0x0, symName: __ZNK2bq8hash_mapINS_11string_baseIcEENS_10unique_ptrINS_14property_valueEEEE32find_index_and_bucket_idx_by_keyERKS2_, symObjAddr: 0xA4D0, symBinAddr: 0x1D214, symSize: 0x114 }
  - { offsetInCU: 0x5DF2, offset: 0x1E57A, size: 0x8, addend: 0x0, symName: __ZNK2bq8hash_mapINS_11string_baseIcEENS_10unique_ptrINS_14property_valueEEEE10nodes_sizeEv, symObjAddr: 0xA610, symBinAddr: 0x1D328, symSize: 0x28 }
  - { offsetInCU: 0x5E18, offset: 0x1E5A0, size: 0x8, addend: 0x0, symName: __ZN2bq8hash_mapINS_11string_baseIcEENS_10unique_ptrINS_14property_valueEEEE13construct_keyIRKS2_EEvRNS_17hash_map_iteratorIS2_S5_Lb0EEEOT_, symObjAddr: 0xA638, symBinAddr: 0x1D350, symSize: 0x68 }
  - { offsetInCU: 0x5E64, offset: 0x1E5EC, size: 0x8, addend: 0x0, symName: __ZNK2bq8hash_mapINS_11string_baseIcEENS_10unique_ptrINS_14property_valueEEEE22value_node_buffer_headIjEixEj, symObjAddr: 0xA6A0, symBinAddr: 0x1D3B8, symSize: 0x74 }
  - { offsetInCU: 0x5E96, offset: 0x1E61E, size: 0x8, addend: 0x0, symName: __ZN2bq5arrayINS_10unique_ptrINS_14property_valueEEELm0EEC2EOS4_, symObjAddr: 0xA88C, symBinAddr: 0x1D42C, symSize: 0x6C }
  - { offsetInCU: 0x5ECF, offset: 0x1E657, size: 0x8, addend: 0x0, symName: __ZNK2bq5arrayINS_10unique_ptrINS_14property_valueEEELm0EE8capacityEv, symObjAddr: 0xA8F8, symBinAddr: 0x1D498, symSize: 0x18 }
  - { offsetInCU: 0x5EF6, offset: 0x1E67E, size: 0x8, addend: 0x0, symName: __ZN2bq8hash_mapINS_11string_baseIcEENS_10unique_ptrINS_14property_valueEEEEC2EOS6_, symObjAddr: 0xA910, symBinAddr: 0x1D4B0, symSize: 0xE8 }
  - { offsetInCU: 0x5F2E, offset: 0x1E6B6, size: 0x8, addend: 0x0, symName: __ZN2bq12aligned_typeIA56_cLj8EEC2Ev, symObjAddr: 0xA9F8, symBinAddr: 0x1D598, symSize: 0x70 }
  - { offsetInCU: 0x5F56, offset: 0x1E6DE, size: 0x8, addend: 0x0, symName: __ZN2bq12aligned_typeIA56_cLj8EE4initEv, symObjAddr: 0xAA68, symBinAddr: 0x1D608, symSize: 0x8C }
  - { offsetInCU: 0x5F96, offset: 0x1E71E, size: 0x8, addend: 0x0, symName: __ZnamPvN2bq14enum_new_dummyE, symObjAddr: 0xAAF4, symBinAddr: 0x1D694, symSize: 0x1C }
  - { offsetInCU: 0x5FD6, offset: 0x1E75E, size: 0x8, addend: 0x0, symName: __ZN2bq12aligned_typeIA56_cLj8EED2Ev, symObjAddr: 0xAB10, symBinAddr: 0x1D6B0, symSize: 0x30 }
  - { offsetInCU: 0x5FFE, offset: 0x1E786, size: 0x8, addend: 0x0, symName: __ZN2bq17object_destructorIA56_cE8destructEPS1_, symObjAddr: 0xAB40, symBinAddr: 0x1D6E0, symSize: 0x24 }
  - { offsetInCU: 0x6020, offset: 0x1E7A8, size: 0x8, addend: 0x0, symName: __ZN2bq17object_destructorIA56_cE15destructor_implIS1_NS2_23trivial_destructor_typeEE8destructEPS1_, symObjAddr: 0xAB64, symBinAddr: 0x1D704, symSize: 0x10 }
  - { offsetInCU: 0x6042, offset: 0x1E7CA, size: 0x8, addend: 0x0, symName: __ZNK2bq8hash_mapINS_11string_baseIcEENS_10unique_ptrINS_14property_valueEEEE20iterator_legal_checkERKNS_17hash_map_iteratorIS2_S5_Lb1EEE, symObjAddr: 0xAB74, symBinAddr: 0x1D714, symSize: 0x124 }
  - { offsetInCU: 0x607C, offset: 0x1E804, size: 0x8, addend: 0x0, symName: __ZN2bq17hash_map_iteratorINS_11string_baseIcEENS_10unique_ptrINS_14property_valueEEELb1EEC1ILb0EEERKNS0_IS2_S5_XT_EEE, symObjAddr: 0xAC98, symBinAddr: 0x1D838, symSize: 0x34 }
  - { offsetInCU: 0x60BC, offset: 0x1E844, size: 0x8, addend: 0x0, symName: __ZN2bq17hash_map_iteratorINS_11string_baseIcEENS_10unique_ptrINS_14property_valueEEELb1EEC2ILb0EEERKNS0_IS2_S5_XT_EEE, symObjAddr: 0xACCC, symBinAddr: 0x1D86C, symSize: 0x3C }
  - { offsetInCU: 0x60FC, offset: 0x1E884, size: 0x8, addend: 0x0, symName: __ZN2bq8hash_mapINS_11string_baseIcEENS_10unique_ptrINS_14property_valueEEEEaSEOS6_, symObjAddr: 0xAD1C, symBinAddr: 0x1D8BC, symSize: 0xD4 }
  - { offsetInCU: 0x6135, offset: 0x1E8BD, size: 0x8, addend: 0x0, symName: __ZN2bq14array_iteratorINS_10unique_ptrINS_14property_valueEEENS_5arrayIS3_Lm0EEEEpLEi, symObjAddr: 0xB244, symBinAddr: 0x1D990, symSize: 0x28 }
  - { offsetInCU: 0x6169, offset: 0x1E8F1, size: 0x8, addend: 0x0, symName: __ZN2bq5arrayINS_10unique_ptrINS_14property_valueEEELm0EEaSEOS4_, symObjAddr: 0xB280, symBinAddr: 0x1D9CC, symSize: 0x6C }
  - { offsetInCU: 0x20A, offset: 0x1EBF5, size: 0x8, addend: 0x0, symName: __ZN2bqL25get_device_console_bufferEv, symObjAddr: 0x814, symBinAddr: 0x1DD78, symSize: 0x9C }
  - { offsetInCU: 0x233, offset: 0x1EC1E, size: 0x8, addend: 0x0, symName: __ZZN2bqL25get_device_console_bufferEvE22device_console_buffer_, symObjAddr: 0xE2D0, symBinAddr: 0x68A28, symSize: 0x0 }
  - { offsetInCU: 0x7C2, offset: 0x1F1AD, size: 0x8, addend: 0x0, symName: __ZN2bq4moveIRcEEONS_16remove_referenceIT_E4typeEOS3_, symObjAddr: 0x1958, symBinAddr: 0x1EC78, symSize: 0x14 }
  - { offsetInCU: 0x7F7, offset: 0x1F1E2, size: 0x8, addend: 0x0, symName: __ZN2bqgeIccNS_5arrayIcLm0EEES2_EEbRKNS_14array_iteratorIT_T1_EERKNS3_IT0_T2_EE, symObjAddr: 0x196C, symBinAddr: 0x1EC8C, symSize: 0xA0 }
  - { offsetInCU: 0x855, offset: 0x1F240, size: 0x8, addend: 0x0, symName: __ZN2bqleIccNS_5arrayIcLm0EEES2_EEbRKNS_14array_iteratorIT_T1_EERKNS3_IT0_T2_EE, symObjAddr: 0x1A0C, symBinAddr: 0x1ED2C, symSize: 0xA0 }
  - { offsetInCU: 0x8B3, offset: 0x1F29E, size: 0x8, addend: 0x0, symName: __ZN2bqmiIccNS_5arrayIcLm0EEES2_EENS_14array_iteratorIT_T1_E9diff_typeERKS6_RKNS3_IT0_T2_EE, symObjAddr: 0x1AAC, symBinAddr: 0x1EDCC, symSize: 0x98 }
  - { offsetInCU: 0xA1E, offset: 0x1F409, size: 0x8, addend: 0x0, symName: __ZN2bq4util18log_device_consoleENS_9log_levelEPKcz, symObjAddr: 0x654, symBinAddr: 0x1DBB8, symSize: 0x1C0 }
  - { offsetInCU: 0xA3F, offset: 0x1F42A, size: 0x8, addend: 0x0, symName: __ZZN2bq4util18log_device_consoleENS_9log_levelEPKczE6mutex_, symObjAddr: 0xE2B0, symBinAddr: 0x68A10, symSize: 0x0 }
  - { offsetInCU: 0x108B, offset: 0x1FA76, size: 0x8, addend: 0x0, symName: __ZN2bq4util21get_gmt_time_by_epochEyR2tm, symObjAddr: 0x4C8, symBinAddr: 0x1DB28, symSize: 0x48 }
  - { offsetInCU: 0x10CB, offset: 0x1FAB6, size: 0x8, addend: 0x0, symName: __ZN2bq4util23get_local_time_by_epochEyR2tm, symObjAddr: 0x60C, symBinAddr: 0x1DB70, symSize: 0x48 }
  - { offsetInCU: 0x110B, offset: 0x1FAF6, size: 0x8, addend: 0x0, symName: __ZN2bq5arrayIcLm0EEixEm, symObjAddr: 0x8B0, symBinAddr: 0x1DE14, symSize: 0x74 }
  - { offsetInCU: 0x1140, offset: 0x1FB2B, size: 0x8, addend: 0x0, symName: __ZNK2bq5arrayIcLm0EE4sizeEv, symObjAddr: 0x924, symBinAddr: 0x1DE88, symSize: 0x18 }
  - { offsetInCU: 0x1167, offset: 0x1FB52, size: 0x8, addend: 0x0, symName: __ZN2bq5arrayIcLm0EE18fill_uninitializedIcEENS_9enable_ifIXsr2bq6is_podIT_EE5valueEvE4typeEm, symObjAddr: 0x93C, symBinAddr: 0x1DEA0, symSize: 0xBC }
  - { offsetInCU: 0x11A5, offset: 0x1FB90, size: 0x8, addend: 0x0, symName: __ZN2bq4util29log_device_console_plain_textENS_9log_levelEPKc, symObjAddr: 0x9F8, symBinAddr: 0x1DF5C, symSize: 0x28 }
  - { offsetInCU: 0x11D7, offset: 0x1FBC2, size: 0x8, addend: 0x0, symName: __ZN2bq5arrayIcLm0EE5beginEv, symObjAddr: 0xA20, symBinAddr: 0x1DF84, symSize: 0x34 }
  - { offsetInCU: 0x11FE, offset: 0x1FBE9, size: 0x8, addend: 0x0, symName: __ZNK2bq14array_iteratorIcNS_5arrayIcLm0EEEEptEv, symObjAddr: 0xA54, symBinAddr: 0x1DFB8, symSize: 0x18 }
  - { offsetInCU: 0x1224, offset: 0x1FC0F, size: 0x8, addend: 0x0, symName: __ZN2bq4util11get_hash_64EPKvm, symObjAddr: 0xAE8, symBinAddr: 0x1DFD0, symSize: 0x80 }
  - { offsetInCU: 0x1281, offset: 0x1FC6C, size: 0x8, addend: 0x0, symName: __ZN2bq4util16is_little_endianEv, symObjAddr: 0xB68, symBinAddr: 0x1E050, symSize: 0x24 }
  - { offsetInCU: 0x12A6, offset: 0x1FC91, size: 0x8, addend: 0x0, symName: __ZN2bq4util13utf16_to_utf8EPKDsjPcj, symObjAddr: 0xC34, symBinAddr: 0x1E074, symSize: 0x4D4 }
  - { offsetInCU: 0x1356, offset: 0x1FD41, size: 0x8, addend: 0x0, symName: __ZN2bq4util13utf8_to_utf16EPKcjPDsj, symObjAddr: 0x1108, symBinAddr: 0x1E548, symSize: 0x3AC }
  - { offsetInCU: 0x1404, offset: 0x1FDEF, size: 0x8, addend: 0x0, symName: __ZN2bq5arrayIcLm0EEC1EOc, symObjAddr: 0x15D4, symBinAddr: 0x1E8F4, symSize: 0x34 }
  - { offsetInCU: 0x143C, offset: 0x1FE27, size: 0x8, addend: 0x0, symName: __ZN2bq5arrayIcLm0EED1Ev, symObjAddr: 0x1608, symBinAddr: 0x1E928, symSize: 0x2C }
  - { offsetInCU: 0x1466, offset: 0x1FE51, size: 0x8, addend: 0x0, symName: __ZN2bq5arrayIcLm0EEC2EOc, symObjAddr: 0x1634, symBinAddr: 0x1E954, symSize: 0x60 }
  - { offsetInCU: 0x149E, offset: 0x1FE89, size: 0x8, addend: 0x0, symName: __ZN2bq5arrayIcLm0EE6insertIJcEEEvNS_14array_iteratorIcS1_EEDpOT_, symObjAddr: 0x1694, symBinAddr: 0x1E9B4, symSize: 0x288 }
  - { offsetInCU: 0x152C, offset: 0x1FF17, size: 0x8, addend: 0x0, symName: __ZN2bq5arrayIcLm0EE3endEv, symObjAddr: 0x191C, symBinAddr: 0x1EC3C, symSize: 0x3C }
  - { offsetInCU: 0x1553, offset: 0x1FF3E, size: 0x8, addend: 0x0, symName: __ZN2bq5arrayIcLm0EE12set_capacityEmb, symObjAddr: 0x1B44, symBinAddr: 0x1EE64, symSize: 0x224 }
  - { offsetInCU: 0x15C2, offset: 0x1FFAD, size: 0x8, addend: 0x0, symName: __ZN2bq14array_iteratorIcNS_5arrayIcLm0EEEEplEm, symObjAddr: 0x1D68, symBinAddr: 0x1F088, symSize: 0x44 }
  - { offsetInCU: 0x1604, offset: 0x1FFEF, size: 0x8, addend: 0x0, symName: __ZNK2bq14array_iteratorIcNS_5arrayIcLm0EEEEcvPcEv, symObjAddr: 0x1DAC, symBinAddr: 0x1F0CC, symSize: 0x18 }
  - { offsetInCU: 0x162A, offset: 0x20015, size: 0x8, addend: 0x0, symName: __ZN2bq5arrayIcLm0EE8destructENS_14array_iteratorIcS1_EE, symObjAddr: 0x1DFC, symBinAddr: 0x1F0E4, symSize: 0x34 }
  - { offsetInCU: 0x165F, offset: 0x2004A, size: 0x8, addend: 0x0, symName: __ZN2bq5arrayIcLm0EE9constructIJcEEEvNS_14array_iteratorIcS1_EEDpOT_, symObjAddr: 0x1E30, symBinAddr: 0x1F118, symSize: 0x74 }
  - { offsetInCU: 0x16BC, offset: 0x200A7, size: 0x8, addend: 0x0, symName: __ZN2bq14array_iteratorIcNS_5arrayIcLm0EEEEpLEi, symObjAddr: 0x1FD4, symBinAddr: 0x1F18C, symSize: 0x28 }
  - { offsetInCU: 0x16F5, offset: 0x200E0, size: 0x8, addend: 0x0, symName: __ZN2bq14array_iteratorIcNS_5arrayIcLm0EEEEC1IcEEPT_PKS2_, symObjAddr: 0x204C, symBinAddr: 0x1F1B4, symSize: 0x3C }
  - { offsetInCU: 0x1744, offset: 0x2012F, size: 0x8, addend: 0x0, symName: __ZN2bq14array_iteratorIcNS_5arrayIcLm0EEEEC2IcEEPT_PKS2_, symObjAddr: 0x2088, symBinAddr: 0x1F1F0, symSize: 0x70 }
  - { offsetInCU: 0x1793, offset: 0x2017E, size: 0x8, addend: 0x0, symName: __ZN2bq5arrayIcLm0EED2Ev, symObjAddr: 0x20F8, symBinAddr: 0x1F260, symSize: 0x2C }
  - { offsetInCU: 0x17BD, offset: 0x201A8, size: 0x8, addend: 0x0, symName: __ZN2bq5arrayIcLm0EE5resetIcEENS_9enable_ifIXsr2bq6is_podIT_EE5valueEvE4typeEv, symObjAddr: 0x2124, symBinAddr: 0x1F28C, symSize: 0x5C }
  - { offsetInCU: 0x17ED, offset: 0x201D8, size: 0x8, addend: 0x0, symName: __ZNK2bq5arrayIcLm0EE8capacityEv, symObjAddr: 0x2DCC, symBinAddr: 0x1F2E8, symSize: 0x18 }
  - { offsetInCU: 0x5D, offset: 0x20293, size: 0x8, addend: 0x0, symName: __ZN2bq3apiL19signal_stack_holderE, symObjAddr: 0x2A000, symBinAddr: 0x68A48, symSize: 0x0 }
  - { offsetInCU: 0xA0, offset: 0x202D6, size: 0x8, addend: 0x0, symName: __ZN2bq3api18log_signal_handlerILi11EE10registeredE, symObjAddr: 0x3E68, symBinAddr: 0x68708, symSize: 0x0 }
  - { offsetInCU: 0x12E, offset: 0x20364, size: 0x8, addend: 0x0, symName: __ZN2bq3api18log_signal_handlerILi11EE18original_sigactionE, symObjAddr: 0x3E70, symBinAddr: 0x68710, symSize: 0x0 }
  - { offsetInCU: 0x146, offset: 0x2037C, size: 0x8, addend: 0x0, symName: __ZN2bq3api18log_signal_handlerILi11EE7handlerE, symObjAddr: 0x3E80, symBinAddr: 0x68720, symSize: 0x0 }
  - { offsetInCU: 0x15A, offset: 0x20390, size: 0x8, addend: 0x0, symName: __ZN2bq3api18log_signal_handlerILi6EE10registeredE, symObjAddr: 0x3E88, symBinAddr: 0x68728, symSize: 0x0 }
  - { offsetInCU: 0x1DD, offset: 0x20413, size: 0x8, addend: 0x0, symName: __ZN2bq3api18log_signal_handlerILi6EE18original_sigactionE, symObjAddr: 0x3E90, symBinAddr: 0x68730, symSize: 0x0 }
  - { offsetInCU: 0x1F5, offset: 0x2042B, size: 0x8, addend: 0x0, symName: __ZN2bq3api18log_signal_handlerILi6EE7handlerE, symObjAddr: 0x3EA0, symBinAddr: 0x68740, symSize: 0x0 }
  - { offsetInCU: 0x209, offset: 0x2043F, size: 0x8, addend: 0x0, symName: __ZN2bq3api18log_signal_handlerILi8EE10registeredE, symObjAddr: 0x3EA8, symBinAddr: 0x68748, symSize: 0x0 }
  - { offsetInCU: 0x28C, offset: 0x204C2, size: 0x8, addend: 0x0, symName: __ZN2bq3api18log_signal_handlerILi8EE18original_sigactionE, symObjAddr: 0x3EB0, symBinAddr: 0x68750, symSize: 0x0 }
  - { offsetInCU: 0x2A4, offset: 0x204DA, size: 0x8, addend: 0x0, symName: __ZN2bq3api18log_signal_handlerILi8EE7handlerE, symObjAddr: 0x3EC0, symBinAddr: 0x68760, symSize: 0x0 }
  - { offsetInCU: 0x2B8, offset: 0x204EE, size: 0x8, addend: 0x0, symName: __ZN2bq3api18log_signal_handlerILi4EE10registeredE, symObjAddr: 0x3EC8, symBinAddr: 0x68768, symSize: 0x0 }
  - { offsetInCU: 0x33B, offset: 0x20571, size: 0x8, addend: 0x0, symName: __ZN2bq3api18log_signal_handlerILi4EE18original_sigactionE, symObjAddr: 0x3ED0, symBinAddr: 0x68770, symSize: 0x0 }
  - { offsetInCU: 0x353, offset: 0x20589, size: 0x8, addend: 0x0, symName: __ZN2bq3api18log_signal_handlerILi4EE7handlerE, symObjAddr: 0x3EE0, symBinAddr: 0x68780, symSize: 0x0 }
  - { offsetInCU: 0x367, offset: 0x2059D, size: 0x8, addend: 0x0, symName: __ZN2bq3api18log_signal_handlerILi5EE10registeredE, symObjAddr: 0x3EE8, symBinAddr: 0x68788, symSize: 0x0 }
  - { offsetInCU: 0x3EA, offset: 0x20620, size: 0x8, addend: 0x0, symName: __ZN2bq3api18log_signal_handlerILi5EE18original_sigactionE, symObjAddr: 0x3EF0, symBinAddr: 0x68790, symSize: 0x0 }
  - { offsetInCU: 0x402, offset: 0x20638, size: 0x8, addend: 0x0, symName: __ZN2bq3api18log_signal_handlerILi5EE7handlerE, symObjAddr: 0x3F00, symBinAddr: 0x687A0, symSize: 0x0 }
  - { offsetInCU: 0x416, offset: 0x2064C, size: 0x8, addend: 0x0, symName: __ZN2bq3api18log_signal_handlerILi10EE10registeredE, symObjAddr: 0x3F08, symBinAddr: 0x687A8, symSize: 0x0 }
  - { offsetInCU: 0x499, offset: 0x206CF, size: 0x8, addend: 0x0, symName: __ZN2bq3api18log_signal_handlerILi10EE18original_sigactionE, symObjAddr: 0x3F10, symBinAddr: 0x687B0, symSize: 0x0 }
  - { offsetInCU: 0x4B1, offset: 0x206E7, size: 0x8, addend: 0x0, symName: __ZN2bq3api18log_signal_handlerILi10EE7handlerE, symObjAddr: 0x3F20, symBinAddr: 0x687C0, symSize: 0x0 }
  - { offsetInCU: 0x4BF, offset: 0x206F5, size: 0x8, addend: 0x0, symName: __ZN2bq3apiL17log_crash_handlerEiP9__siginfoPv, symObjAddr: 0x1E0, symBinAddr: 0x1F4A8, symSize: 0x4C }
  - { offsetInCU: 0x500E, offset: 0x25244, size: 0x8, addend: 0x0, symName: __ZN2bq7forwardIRA1_KcEEOT_RNS_16remove_referenceIS4_E4typeE, symObjAddr: 0x39F8, symBinAddr: 0x20F20, symSize: 0x14 }
  - { offsetInCU: 0x5DD6, offset: 0x2600C, size: 0x8, addend: 0x0, symName: ___api_get_log_version, symObjAddr: 0x38, symBinAddr: 0x1F300, symSize: 0xC }
  - { offsetInCU: 0x5DF0, offset: 0x26026, size: 0x8, addend: 0x0, symName: __ZN2bq3api24signal_stack_holder_typeC1Ev, symObjAddr: 0x44, symBinAddr: 0x1F30C, symSize: 0x2C }
  - { offsetInCU: 0x5E18, offset: 0x2604E, size: 0x8, addend: 0x0, symName: __ZN2bq3api24signal_stack_holder_typeD1Ev, symObjAddr: 0x70, symBinAddr: 0x1F338, symSize: 0x2C }
  - { offsetInCU: 0x5E40, offset: 0x26076, size: 0x8, addend: 0x0, symName: ___api_enable_auto_crash_handler, symObjAddr: 0x9C, symBinAddr: 0x1F364, symSize: 0x50 }
  - { offsetInCU: 0x5E56, offset: 0x2608C, size: 0x8, addend: 0x0, symName: __ZN2bq3api18log_signal_handlerILi11EE11set_handlerEPFviP9__siginfoPvE, symObjAddr: 0xEC, symBinAddr: 0x1F3B4, symSize: 0xF4 }
  - { offsetInCU: 0x5EBE, offset: 0x260F4, size: 0x8, addend: 0x0, symName: __ZN2bq3api18log_signal_handlerILi6EE11set_handlerEPFviP9__siginfoPvE, symObjAddr: 0x22C, symBinAddr: 0x1F4F4, symSize: 0xF4 }
  - { offsetInCU: 0x5F26, offset: 0x2615C, size: 0x8, addend: 0x0, symName: __ZN2bq3api18log_signal_handlerILi8EE11set_handlerEPFviP9__siginfoPvE, symObjAddr: 0x320, symBinAddr: 0x1F5E8, symSize: 0xF4 }
  - { offsetInCU: 0x5F8E, offset: 0x261C4, size: 0x8, addend: 0x0, symName: __ZN2bq3api18log_signal_handlerILi4EE11set_handlerEPFviP9__siginfoPvE, symObjAddr: 0x414, symBinAddr: 0x1F6DC, symSize: 0xF4 }
  - { offsetInCU: 0x5FF6, offset: 0x2622C, size: 0x8, addend: 0x0, symName: __ZN2bq3api18log_signal_handlerILi5EE11set_handlerEPFviP9__siginfoPvE, symObjAddr: 0x508, symBinAddr: 0x1F7D0, symSize: 0xF4 }
  - { offsetInCU: 0x605E, offset: 0x26294, size: 0x8, addend: 0x0, symName: __ZN2bq3api18log_signal_handlerILi10EE11set_handlerEPFviP9__siginfoPvE, symObjAddr: 0x5FC, symBinAddr: 0x1F8C4, symSize: 0xF4 }
  - { offsetInCU: 0x60C6, offset: 0x262FC, size: 0x8, addend: 0x0, symName: ___api_create_log, symObjAddr: 0x6F0, symBinAddr: 0x1F9B8, symSize: 0x130 }
  - { offsetInCU: 0x6168, offset: 0x2639E, size: 0x8, addend: 0x0, symName: __ZN2bq5arrayINS_11string_baseIcEELm0EE9push_backIJRA1_KcEEEmDpOT_, symObjAddr: 0xA7C, symBinAddr: 0x1FAE8, symSize: 0x58 }
  - { offsetInCU: 0x61AD, offset: 0x263E3, size: 0x8, addend: 0x0, symName: ___api_log_reset_config, symObjAddr: 0xBB8, symBinAddr: 0x1FB40, symSize: 0x78 }
  - { offsetInCU: 0x6216, offset: 0x2644C, size: 0x8, addend: 0x0, symName: ___api_log_buffer_alloc, symObjAddr: 0xC30, symBinAddr: 0x1FBB8, symSize: 0x2D8 }
  - { offsetInCU: 0x6336, offset: 0x2656C, size: 0x8, addend: 0x0, symName: __ZN2bq11log_manager13get_log_by_idEy, symObjAddr: 0xF08, symBinAddr: 0x1FE90, symSize: 0x58 }
  - { offsetInCU: 0x6358, offset: 0x2658E, size: 0x8, addend: 0x0, symName: __ZNK2bq7log_imp15get_ring_bufferEv, symObjAddr: 0xF60, symBinAddr: 0x1FEE8, symSize: 0x18 }
  - { offsetInCU: 0x637C, offset: 0x265B2, size: 0x8, addend: 0x0, symName: __ZNK2bq7log_imp18get_reliable_levelEv, symObjAddr: 0xF78, symBinAddr: 0x1FF00, symSize: 0x18 }
  - { offsetInCU: 0x63A0, offset: 0x265D6, size: 0x8, addend: 0x0, symName: ___api_log_buffer_commit, symObjAddr: 0xF90, symBinAddr: 0x1FF18, symSize: 0x114 }
  - { offsetInCU: 0x6413, offset: 0x26649, size: 0x8, addend: 0x0, symName: __ZN2bq24ring_buffer_write_handleC1Ev, symObjAddr: 0x10A4, symBinAddr: 0x2002C, symSize: 0x2C }
  - { offsetInCU: 0x643D, offset: 0x26673, size: 0x8, addend: 0x0, symName: __ZNK2bq7log_imp15get_thread_modeEv, symObjAddr: 0x10D0, symBinAddr: 0x20058, symSize: 0x18 }
  - { offsetInCU: 0x6461, offset: 0x26697, size: 0x8, addend: 0x0, symName: ___api_set_appenders_enable, symObjAddr: 0x10E8, symBinAddr: 0x20070, symSize: 0x84 }
  - { offsetInCU: 0x64B5, offset: 0x266EB, size: 0x8, addend: 0x0, symName: ___api_get_logs_count, symObjAddr: 0x116C, symBinAddr: 0x200F4, symSize: 0x18 }
  - { offsetInCU: 0x64D0, offset: 0x26706, size: 0x8, addend: 0x0, symName: ___api_get_log_id_by_index, symObjAddr: 0x1184, symBinAddr: 0x2010C, symSize: 0x5C }
  - { offsetInCU: 0x650A, offset: 0x26740, size: 0x8, addend: 0x0, symName: __ZNK2bq7log_imp2idEv, symObjAddr: 0x11E0, symBinAddr: 0x20168, symSize: 0x18 }
  - { offsetInCU: 0x652E, offset: 0x26764, size: 0x8, addend: 0x0, symName: ___api_get_log_name_by_id, symObjAddr: 0x11F8, symBinAddr: 0x20180, symSize: 0xC8 }
  - { offsetInCU: 0x6594, offset: 0x267CA, size: 0x8, addend: 0x0, symName: ___api_get_log_categories_count, symObjAddr: 0x1348, symBinAddr: 0x20248, symSize: 0x58 }
  - { offsetInCU: 0x65CE, offset: 0x26804, size: 0x8, addend: 0x0, symName: ___api_get_log_category_name_by_index, symObjAddr: 0x13A0, symBinAddr: 0x202A0, symSize: 0x108 }
  - { offsetInCU: 0x6644, offset: 0x2687A, size: 0x8, addend: 0x0, symName: ___api_get_log_merged_log_level_bitmap_by_log_id, symObjAddr: 0x14A8, symBinAddr: 0x203A8, symSize: 0x5C }
  - { offsetInCU: 0x66A6, offset: 0x268DC, size: 0x8, addend: 0x0, symName: ___api_get_log_category_masks_array_by_log_id, symObjAddr: 0x1504, symBinAddr: 0x20404, symSize: 0xC8 }
  - { offsetInCU: 0x6706, offset: 0x2693C, size: 0x8, addend: 0x0, symName: ___api_get_log_print_stack_level_bitmap_by_log_id, symObjAddr: 0x15CC, symBinAddr: 0x204CC, symSize: 0x5C }
  - { offsetInCU: 0x6740, offset: 0x26976, size: 0x8, addend: 0x0, symName: ___api_log_device_console, symObjAddr: 0x1628, symBinAddr: 0x20528, symSize: 0x2C }
  - { offsetInCU: 0x6776, offset: 0x269AC, size: 0x8, addend: 0x0, symName: ___api_force_flush, symObjAddr: 0x1654, symBinAddr: 0x20554, symSize: 0x50 }
  - { offsetInCU: 0x679D, offset: 0x269D3, size: 0x8, addend: 0x0, symName: ___api_get_file_base_dir, symObjAddr: 0x16A4, symBinAddr: 0x205A4, symSize: 0x34 }
  - { offsetInCU: 0x67C8, offset: 0x269FE, size: 0x8, addend: 0x0, symName: ___api_log_decoder_create, symObjAddr: 0x16D8, symBinAddr: 0x205D8, symSize: 0x5C }
  - { offsetInCU: 0x6802, offset: 0x26A38, size: 0x8, addend: 0x0, symName: ___api_log_decoder_decode, symObjAddr: 0x1734, symBinAddr: 0x20634, symSize: 0x74 }
  - { offsetInCU: 0x685A, offset: 0x26A90, size: 0x8, addend: 0x0, symName: ___api_log_decoder_destroy, symObjAddr: 0x17A8, symBinAddr: 0x206A8, symSize: 0x28 }
  - { offsetInCU: 0x6881, offset: 0x26AB7, size: 0x8, addend: 0x0, symName: ___api_log_decode, symObjAddr: 0x17D0, symBinAddr: 0x206D0, symSize: 0x6C }
  - { offsetInCU: 0x68BB, offset: 0x26AF1, size: 0x8, addend: 0x0, symName: ___api_register_console_callbacks, symObjAddr: 0x183C, symBinAddr: 0x2073C, symSize: 0x24 }
  - { offsetInCU: 0x68E2, offset: 0x26B18, size: 0x8, addend: 0x0, symName: ___api_unregister_console_callbacks, symObjAddr: 0x1860, symBinAddr: 0x20760, symSize: 0x24 }
  - { offsetInCU: 0x6909, offset: 0x26B3F, size: 0x8, addend: 0x0, symName: ___api_set_console_buffer_enable, symObjAddr: 0x1884, symBinAddr: 0x20784, symSize: 0x30 }
  - { offsetInCU: 0x6930, offset: 0x26B66, size: 0x8, addend: 0x0, symName: ___api_fetch_and_remove_console_buffer, symObjAddr: 0x18B4, symBinAddr: 0x207B4, symSize: 0x30 }
  - { offsetInCU: 0x696A, offset: 0x26BA0, size: 0x8, addend: 0x0, symName: ___api_take_snapshot_string, symObjAddr: 0x18E4, symBinAddr: 0x207E4, symSize: 0x98 }
  - { offsetInCU: 0x69CD, offset: 0x26C03, size: 0x8, addend: 0x0, symName: ___api_release_snapshot_string, symObjAddr: 0x197C, symBinAddr: 0x2087C, symSize: 0x60 }
  - { offsetInCU: 0x6A12, offset: 0x26C48, size: 0x8, addend: 0x0, symName: ___api_get_stack_trace, symObjAddr: 0x19DC, symBinAddr: 0x208DC, symSize: 0x48 }
  - { offsetInCU: 0x6A66, offset: 0x26C9C, size: 0x8, addend: 0x0, symName: ___api_get_stack_trace_utf16, symObjAddr: 0x1A24, symBinAddr: 0x20924, symSize: 0x48 }
  - { offsetInCU: 0x6ABB, offset: 0x26CF1, size: 0x8, addend: 0x0, symName: ___api_uninit, symObjAddr: 0x1A6C, symBinAddr: 0x2096C, symSize: 0x18 }
  - { offsetInCU: 0x6AD1, offset: 0x26D07, size: 0x8, addend: 0x0, symName: __ZN2bq3api24signal_stack_holder_typeC2Ev, symObjAddr: 0x1A84, symBinAddr: 0x20984, symSize: 0x3C }
  - { offsetInCU: 0x6AF9, offset: 0x26D2F, size: 0x8, addend: 0x0, symName: __ZN2bq3api24signal_stack_holder_typeD2Ev, symObjAddr: 0x1AC0, symBinAddr: 0x209C0, symSize: 0x30 }
  - { offsetInCU: 0x6B21, offset: 0x26D57, size: 0x8, addend: 0x0, symName: __ZN2bq24ring_buffer_write_handleC2Ev, symObjAddr: 0x1BA4, symBinAddr: 0x209F0, symSize: 0x30 }
  - { offsetInCU: 0x6B51, offset: 0x26D87, size: 0x8, addend: 0x0, symName: __ZN2bq23ring_buffer_handle_baseC2Ev, symObjAddr: 0x1BD4, symBinAddr: 0x20A20, symSize: 0x20 }
  - { offsetInCU: 0x6B7A, offset: 0x26DB0, size: 0x8, addend: 0x0, symName: __ZN2bq3api18log_signal_handlerILi11EE9on_signalEiP9__siginfoPv, symObjAddr: 0x3518, symBinAddr: 0x20A40, symSize: 0x64 }
  - { offsetInCU: 0x6BC6, offset: 0x26DFC, size: 0x8, addend: 0x0, symName: __ZN2bq3api18log_signal_handlerILi6EE9on_signalEiP9__siginfoPv, symObjAddr: 0x357C, symBinAddr: 0x20AA4, symSize: 0x64 }
  - { offsetInCU: 0x6C12, offset: 0x26E48, size: 0x8, addend: 0x0, symName: __ZN2bq3api18log_signal_handlerILi8EE9on_signalEiP9__siginfoPv, symObjAddr: 0x35E0, symBinAddr: 0x20B08, symSize: 0x64 }
  - { offsetInCU: 0x6C5E, offset: 0x26E94, size: 0x8, addend: 0x0, symName: __ZN2bq3api18log_signal_handlerILi4EE9on_signalEiP9__siginfoPv, symObjAddr: 0x3644, symBinAddr: 0x20B6C, symSize: 0x64 }
  - { offsetInCU: 0x6CAA, offset: 0x26EE0, size: 0x8, addend: 0x0, symName: __ZN2bq3api18log_signal_handlerILi5EE9on_signalEiP9__siginfoPv, symObjAddr: 0x36A8, symBinAddr: 0x20BD0, symSize: 0x64 }
  - { offsetInCU: 0x6CF6, offset: 0x26F2C, size: 0x8, addend: 0x0, symName: __ZN2bq3api18log_signal_handlerILi10EE9on_signalEiP9__siginfoPv, symObjAddr: 0x370C, symBinAddr: 0x20C34, symSize: 0x64 }
  - { offsetInCU: 0x6D42, offset: 0x26F78, size: 0x8, addend: 0x0, symName: __ZN2bq5arrayINS_11string_baseIcEELm0EE6insertIJRA1_KcEEEvNS_14array_iteratorIS2_S3_EEDpOT_, symObjAddr: 0x3770, symBinAddr: 0x20C98, symSize: 0x288 }
  - { offsetInCU: 0x6DD0, offset: 0x27006, size: 0x8, addend: 0x0, symName: __ZN2bq5arrayINS_11string_baseIcEELm0EE9constructIJRA1_KcEEEvNS_14array_iteratorIS2_S3_EEDpOT_, symObjAddr: 0x3A0C, symBinAddr: 0x20F34, symSize: 0x74 }
  - { offsetInCU: 0x2BBF, offset: 0x29D49, size: 0x8, addend: 0x0, symName: __ZN2bq7forwardIRhEEOT_RNS_16remove_referenceIS2_E4typeE, symObjAddr: 0x4200, symBinAddr: 0x22A3C, symSize: 0x14 }
  - { offsetInCU: 0x3028, offset: 0x2A1B2, size: 0x8, addend: 0x0, symName: __ZN2bq13appender_base23get_config_name_by_typeENS0_13appender_typeE, symObjAddr: 0x2B4, symBinAddr: 0x21200, symSize: 0xEC }
  - { offsetInCU: 0x3049, offset: 0x2A1D3, size: 0x8, addend: 0x0, symName: __ZZN2bq13appender_base23get_config_name_by_typeENS0_13appender_typeEE16TYPE_CONFIG_NAME, symObjAddr: 0x29F08, symBinAddr: 0x68A50, symSize: 0x0 }
  - { offsetInCU: 0x3608, offset: 0x2A792, size: 0x8, addend: 0x0, symName: __ZN2bq13appender_baseC2Ev, symObjAddr: 0x0, symBinAddr: 0x20FFC, symSize: 0x88 }
  - { offsetInCU: 0x3684, offset: 0x2A80E, size: 0x8, addend: 0x0, symName: __ZN2bq13appender_base5clearEv, symObjAddr: 0xE0, symBinAddr: 0x21084, symSize: 0xAC }
  - { offsetInCU: 0x371E, offset: 0x2A8A8, size: 0x8, addend: 0x0, symName: __ZN2bq13appender_baseD2Ev, symObjAddr: 0x18C, symBinAddr: 0x21130, symSize: 0xB0 }
  - { offsetInCU: 0x379F, offset: 0x2A929, size: 0x8, addend: 0x0, symName: __ZN2bq13appender_baseD1Ev, symObjAddr: 0x294, symBinAddr: 0x211E0, symSize: 0x14 }
  - { offsetInCU: 0x37C9, offset: 0x2A953, size: 0x8, addend: 0x0, symName: __ZN2bq13appender_baseD0Ev, symObjAddr: 0x2A8, symBinAddr: 0x211F4, symSize: 0xC }
  - { offsetInCU: 0x37F3, offset: 0x2A97D, size: 0x8, addend: 0x0, symName: __ZN2bq13appender_base10set_enableEb, symObjAddr: 0x3D4, symBinAddr: 0x212EC, symSize: 0x2C }
  - { offsetInCU: 0x3827, offset: 0x2A9B1, size: 0x8, addend: 0x0, symName: __ZN2bq13appender_base10get_enableEv, symObjAddr: 0x400, symBinAddr: 0x21318, symSize: 0x1C }
  - { offsetInCU: 0x384D, offset: 0x2A9D7, size: 0x8, addend: 0x0, symName: __ZN2bq5arrayINS_11string_baseIcEELm0EE5clearEv, symObjAddr: 0x494, symBinAddr: 0x21334, symSize: 0x6C }
  - { offsetInCU: 0x3942, offset: 0x2AACC, size: 0x8, addend: 0x0, symName: __ZN2bq13appender_base4initERKNS_11string_baseIcEERKNS_14property_valueEPKNS_7log_impE, symObjAddr: 0x500, symBinAddr: 0x213A0, symSize: 0x744 }
  - { offsetInCU: 0x3BA2, offset: 0x2AD2C, size: 0x8, addend: 0x0, symName: __ZNK2bq11string_baseIcE18equals_ignore_caseERKS1_, symObjAddr: 0xEC0, symBinAddr: 0x21AE4, symSize: 0x150 }
  - { offsetInCU: 0x3C03, offset: 0x2AD8D, size: 0x8, addend: 0x0, symName: __ZNK2bq5arrayINS_11string_baseIcEELm0EEixEm, symObjAddr: 0x1128, symBinAddr: 0x21C34, symSize: 0x7C }
  - { offsetInCU: 0x3C38, offset: 0x2ADC2, size: 0x8, addend: 0x0, symName: __ZNK2bq11string_baseIcE10begin_withERKS1_, symObjAddr: 0x1390, symBinAddr: 0x21CB0, symSize: 0xB8 }
  - { offsetInCU: 0x3CD5, offset: 0x2AE5F, size: 0x8, addend: 0x0, symName: __ZN2bq13appender_base3logERKNS_16log_entry_handleE, symObjAddr: 0x1480, symBinAddr: 0x21D68, symSize: 0x138 }
  - { offsetInCU: 0x3DB0, offset: 0x2AF3A, size: 0x8, addend: 0x0, symName: __ZN2bq23object_array_destructorIhE8destructEPhm, symObjAddr: 0x269C, symBinAddr: 0x21EA0, symSize: 0x2C }
  - { offsetInCU: 0x3DE0, offset: 0x2AF6A, size: 0x8, addend: 0x0, symName: __ZN2bq23object_array_destructorIhE15destructor_implIhNS1_23trivial_destructor_typeEE8destructEPhm, symObjAddr: 0x26C8, symBinAddr: 0x21ECC, symSize: 0x14 }
  - { offsetInCU: 0x3E10, offset: 0x2AF9A, size: 0x8, addend: 0x0, symName: __Z7toupperi, symObjAddr: 0x2A74, symBinAddr: 0x21EE0, symSize: 0x24 }
  - { offsetInCU: 0x3F92, offset: 0x2B11C, size: 0x8, addend: 0x0, symName: __ZN2bq12array_inlineIhLm0EE6insertIJRhEEEvNS_21array_iterator_inlineIhS1_EEDpOT_, symObjAddr: 0x36C8, symBinAddr: 0x21F04, symSize: 0xB38 }
  - { offsetInCU: 0x46E6, offset: 0x2B870, size: 0x8, addend: 0x0, symName: __ZN2bq17object_destructorIhE8destructEPh, symObjAddr: 0x4214, symBinAddr: 0x22A50, symSize: 0x24 }
  - { offsetInCU: 0x4708, offset: 0x2B892, size: 0x8, addend: 0x0, symName: __ZN2bq17object_destructorIhE15destructor_implIhNS1_23trivial_destructor_typeEE8destructEPh, symObjAddr: 0x4238, symBinAddr: 0x22A74, symSize: 0x10 }
  - { offsetInCU: 0x26, offset: 0x2B8EE, size: 0x8, addend: 0x0, symName: __ZN2bq16appender_console17console_callbacks17register_callbackEPFvyiiPKciE, symObjAddr: 0x0, symBinAddr: 0x22AE4, symSize: 0x60 }
  - { offsetInCU: 0x30C0, offset: 0x2E988, size: 0x8, addend: 0x0, symName: __ZN2bqneIPFvyiiPKciEbLb0ELb0EEEbRKNS_17hash_map_iteratorIT_T0_XT1_EEERKNS5_IS6_S7_XT2_EEE, symObjAddr: 0x274, symBinAddr: 0x22CF8, symSize: 0x34 }
  - { offsetInCU: 0x3120, offset: 0x2E9E8, size: 0x8, addend: 0x0, symName: __ZN2bq7forwardIiEEOT_RNS_16remove_referenceIS1_E4typeE, symObjAddr: 0x2228, symBinAddr: 0x243C4, symSize: 0x14 }
  - { offsetInCU: 0x3155, offset: 0x2EA1D, size: 0x8, addend: 0x0, symName: __ZN2bq4moveIRPFvyiiPKciEEEONS_16remove_referenceIT_E4typeEOS7_, symObjAddr: 0x4024, symBinAddr: 0x25FF8, symSize: 0x14 }
  - { offsetInCU: 0x3236, offset: 0x2EAFE, size: 0x8, addend: 0x0, symName: __ZN2bq7forwardIRKPFvyiiPKciEEEOT_RNS_16remove_referenceIS7_E4typeE, symObjAddr: 0x575C, symBinAddr: 0x26C48, symSize: 0x14 }
  - { offsetInCU: 0x326B, offset: 0x2EB33, size: 0x8, addend: 0x0, symName: __ZN2bqeqIPFvyiiPKciEbLb0ELb0EEEbRKNS_17hash_map_iteratorIT_T0_XT1_EEERKNS5_IS6_S7_XT2_EEE, symObjAddr: 0x5770, symBinAddr: 0x26C5C, symSize: 0xE4 }
  - { offsetInCU: 0x382A, offset: 0x2F0F2, size: 0x8, addend: 0x0, symName: __ZN2bq16appender_console16get_console_miscEv, symObjAddr: 0x1258, symBinAddr: 0x23CB0, symSize: 0x94 }
  - { offsetInCU: 0x384E, offset: 0x2F116, size: 0x8, addend: 0x0, symName: __ZZN2bq16appender_console16get_console_miscEvE5misc_, symObjAddr: 0x2C870, symBinAddr: 0x68AB8, symSize: 0x0 }
  - { offsetInCU: 0x3872, offset: 0x2F13A, size: 0x8, addend: 0x0, symName: __ZN2bq8hash_mapIPFvyiiPKciEbE12expand_nodesEj, symObjAddr: 0x3A8C, symBinAddr: 0x25B00, symSize: 0x2C4 }
  - { offsetInCU: 0x3E93, offset: 0x2F75B, size: 0x8, addend: 0x0, symName: __ZN2bq16appender_console17console_callbacks17register_callbackEPFvyiiPKciE, symObjAddr: 0x0, symBinAddr: 0x22AE4, symSize: 0x60 }
  - { offsetInCU: 0x3ED5, offset: 0x2F79D, size: 0x8, addend: 0x0, symName: __ZN2bq8hash_mapIPFvyiiPKciEbEixERKS4_, symObjAddr: 0x94, symBinAddr: 0x22B44, symSize: 0x90 }
  - { offsetInCU: 0x3F17, offset: 0x2F7DF, size: 0x8, addend: 0x0, symName: __ZN2bq16appender_console17console_callbacks14erase_callbackEPFvyiiPKciE, symObjAddr: 0x150, symBinAddr: 0x22BD4, symSize: 0xB0 }
  - { offsetInCU: 0x3F67, offset: 0x2F82F, size: 0x8, addend: 0x0, symName: __ZN2bq8hash_mapIPFvyiiPKciEbE4findERKS4_, symObjAddr: 0x200, symBinAddr: 0x22C84, symSize: 0x74 }
  - { offsetInCU: 0x3FA9, offset: 0x2F871, size: 0x8, addend: 0x0, symName: __ZN2bq8hash_mapIPFvyiiPKciEbE3endEv, symObjAddr: 0x2A8, symBinAddr: 0x22D2C, symSize: 0x38 }
  - { offsetInCU: 0x3FD0, offset: 0x2F898, size: 0x8, addend: 0x0, symName: __ZN2bq8hash_mapIPFvyiiPKciEbE5eraseENS_17hash_map_iteratorIS4_bLb0EEE, symObjAddr: 0x2E0, symBinAddr: 0x22D64, symSize: 0x228 }
  - { offsetInCU: 0x4041, offset: 0x2F909, size: 0x8, addend: 0x0, symName: __ZN2bq16appender_console17console_callbacks4callEyiiPKci, symObjAddr: 0x508, symBinAddr: 0x22F8C, symSize: 0xE8 }
  - { offsetInCU: 0x40F3, offset: 0x2F9BB, size: 0x8, addend: 0x0, symName: __ZNK2bq8hash_mapIPFvyiiPKciEbE8is_emptyEv, symObjAddr: 0x5F0, symBinAddr: 0x23074, symSize: 0x24 }
  - { offsetInCU: 0x4119, offset: 0x2F9E1, size: 0x8, addend: 0x0, symName: __ZN2bq8hash_mapIPFvyiiPKciEbE5beginEv, symObjAddr: 0x614, symBinAddr: 0x23098, symSize: 0x84 }
  - { offsetInCU: 0x4140, offset: 0x2FA08, size: 0x8, addend: 0x0, symName: __ZN2bq17hash_map_iteratorIPFvyiiPKciEbLb0EEptEv, symObjAddr: 0x698, symBinAddr: 0x2311C, symSize: 0x34 }
  - { offsetInCU: 0x4166, offset: 0x2FA2E, size: 0x8, addend: 0x0, symName: __ZNK2bq7kv_pairIPFvyiiPKciEbE3keyEv, symObjAddr: 0x6CC, symBinAddr: 0x23150, symSize: 0x14 }
  - { offsetInCU: 0x418A, offset: 0x2FA52, size: 0x8, addend: 0x0, symName: __ZN2bq17hash_map_iteratorIPFvyiiPKciEbLb0EEppEv, symObjAddr: 0x6E0, symBinAddr: 0x23164, symSize: 0x88 }
  - { offsetInCU: 0x41B0, offset: 0x2FA78, size: 0x8, addend: 0x0, symName: __ZN2bq16appender_console19console_ring_bufferC2Ev, symObjAddr: 0x768, symBinAddr: 0x231EC, symSize: 0x80 }
  - { offsetInCU: 0x41DA, offset: 0x2FAA2, size: 0x8, addend: 0x0, symName: __ZN2bq8platform18spin_lock_rw_crazyC1Ev, symObjAddr: 0x7E8, symBinAddr: 0x2326C, symSize: 0x2C }
  - { offsetInCU: 0x4202, offset: 0x2FACA, size: 0x8, addend: 0x0, symName: __ZN2bq11ring_buffer23set_thread_check_enableEb, symObjAddr: 0x814, symBinAddr: 0x23298, symSize: 0x4C }
  - { offsetInCU: 0x4234, offset: 0x2FAFC, size: 0x8, addend: 0x0, symName: __ZN2bq16appender_console19console_ring_bufferC1Ev, symObjAddr: 0x860, symBinAddr: 0x232E4, symSize: 0x2C }
  - { offsetInCU: 0x425E, offset: 0x2FB26, size: 0x8, addend: 0x0, symName: __ZN2bq16appender_console19console_ring_bufferD2Ev, symObjAddr: 0x88C, symBinAddr: 0x23310, symSize: 0x84 }
  - { offsetInCU: 0x4288, offset: 0x2FB50, size: 0x8, addend: 0x0, symName: __ZN2bq16appender_console19console_ring_bufferD1Ev, symObjAddr: 0x910, symBinAddr: 0x23394, symSize: 0x2C }
  - { offsetInCU: 0x42E4, offset: 0x2FBAC, size: 0x8, addend: 0x0, symName: __ZN2bq16appender_console19console_ring_buffer6insertEyiiPKci, symObjAddr: 0x93C, symBinAddr: 0x233C0, symSize: 0x5AC }
  - { offsetInCU: 0x44C4, offset: 0x2FD8C, size: 0x8, addend: 0x0, symName: __ZN2bq8platform27scoped_spin_lock_read_crazyC1ERNS0_18spin_lock_rw_crazyE, symObjAddr: 0xEE8, symBinAddr: 0x2396C, symSize: 0x34 }
  - { offsetInCU: 0x44FA, offset: 0x2FDC2, size: 0x8, addend: 0x0, symName: __ZN2bq8platform27scoped_spin_lock_read_crazyD1Ev, symObjAddr: 0xF1C, symBinAddr: 0x239A0, symSize: 0x2C }
  - { offsetInCU: 0x4527, offset: 0x2FDEF, size: 0x8, addend: 0x0, symName: __ZN2bq8platform28scoped_spin_lock_write_crazyC1ERNS0_18spin_lock_rw_crazyE, symObjAddr: 0xF48, symBinAddr: 0x239CC, symSize: 0x34 }
  - { offsetInCU: 0x455D, offset: 0x2FE25, size: 0x8, addend: 0x0, symName: __ZN2bq8platform28scoped_spin_lock_write_crazyD1Ev, symObjAddr: 0xF7C, symBinAddr: 0x23A00, symSize: 0x2C }
  - { offsetInCU: 0x4585, offset: 0x2FE4D, size: 0x8, addend: 0x0, symName: __ZN2bq16appender_console19console_ring_buffer16fetch_and_removeEPFvPvyiiPKciEPKv, symObjAddr: 0xFA8, symBinAddr: 0x23A2C, symSize: 0x1A0 }
  - { offsetInCU: 0x4662, offset: 0x2FF2A, size: 0x8, addend: 0x0, symName: __ZN2bq16appender_console19console_ring_buffer10set_enableEb, symObjAddr: 0x1148, symBinAddr: 0x23BCC, symSize: 0x2C }
  - { offsetInCU: 0x4696, offset: 0x2FF5E, size: 0x8, addend: 0x0, symName: __ZN2bq16appender_consoleC2Ev, symObjAddr: 0x1174, symBinAddr: 0x23BF8, symSize: 0x5C }
  - { offsetInCU: 0x46C0, offset: 0x2FF88, size: 0x8, addend: 0x0, symName: __ZN2bq16appender_consoleC1Ev, symObjAddr: 0x11FC, symBinAddr: 0x23C54, symSize: 0x2C }
  - { offsetInCU: 0x46EA, offset: 0x2FFB2, size: 0x8, addend: 0x0, symName: __ZN2bq16appender_console25register_console_callbackEPFvyiiPKciE, symObjAddr: 0x1228, symBinAddr: 0x23C80, symSize: 0x30 }
  - { offsetInCU: 0x470E, offset: 0x2FFD6, size: 0x8, addend: 0x0, symName: __ZN2bq16appender_console27unregister_console_callbackEPFvyiiPKciE, symObjAddr: 0x12EC, symBinAddr: 0x23D44, symSize: 0x30 }
  - { offsetInCU: 0x474B, offset: 0x30013, size: 0x8, addend: 0x0, symName: __ZN2bq16appender_console25set_console_buffer_enableEb, symObjAddr: 0x131C, symBinAddr: 0x23D74, symSize: 0x40 }
  - { offsetInCU: 0x478C, offset: 0x30054, size: 0x8, addend: 0x0, symName: __ZN2bq16appender_console36fetch_and_remove_from_console_bufferEPFvPvyiiPKciEPKv, symObjAddr: 0x135C, symBinAddr: 0x23DB4, symSize: 0x40 }
  - { offsetInCU: 0x47DB, offset: 0x300A3, size: 0x8, addend: 0x0, symName: __ZN2bq16appender_console9init_implERKNS_14property_valueE, symObjAddr: 0x139C, symBinAddr: 0x23DF4, symSize: 0xB4 }
  - { offsetInCU: 0x4864, offset: 0x3012C, size: 0x8, addend: 0x0, symName: __ZN2bq16appender_console8log_implERKNS_16log_entry_handleE, symObjAddr: 0x1630, symBinAddr: 0x23EA8, symSize: 0x2FC }
  - { offsetInCU: 0x49CF, offset: 0x30297, size: 0x8, addend: 0x0, symName: __ZN2bq6layout16get_formated_strEv, symObjAddr: 0x1C18, symBinAddr: 0x241A4, symSize: 0x58 }
  - { offsetInCU: 0x49F3, offset: 0x302BB, size: 0x8, addend: 0x0, symName: __ZNK2bq6layout20get_formated_str_lenEv, symObjAddr: 0x1C70, symBinAddr: 0x241FC, symSize: 0x18 }
  - { offsetInCU: 0x4A17, offset: 0x302DF, size: 0x8, addend: 0x0, symName: __ZN2bq16appender_console19console_static_miscC1Ev, symObjAddr: 0x200C, symBinAddr: 0x24214, symSize: 0x2C }
  - { offsetInCU: 0x4A41, offset: 0x30309, size: 0x8, addend: 0x0, symName: __ZN2bq16appender_console19console_static_miscD1Ev, symObjAddr: 0x2038, symBinAddr: 0x24240, symSize: 0x2C }
  - { offsetInCU: 0x4A6B, offset: 0x30333, size: 0x8, addend: 0x0, symName: __ZN2bq16appender_consoleD1Ev, symObjAddr: 0x2064, symBinAddr: 0x2426C, symSize: 0x2C }
  - { offsetInCU: 0x4A95, offset: 0x3035D, size: 0x8, addend: 0x0, symName: __ZN2bq16appender_consoleD0Ev, symObjAddr: 0x2090, symBinAddr: 0x24298, symSize: 0x30 }
  - { offsetInCU: 0x4ABF, offset: 0x30387, size: 0x8, addend: 0x0, symName: __ZN2bq8platform18spin_lock_rw_crazyC2Ev, symObjAddr: 0x212C, symBinAddr: 0x242C8, symSize: 0x48 }
  - { offsetInCU: 0x4AEC, offset: 0x303B4, size: 0x8, addend: 0x0, symName: __ZN2bq19cache_friendly_typeINS_8platform6atomicIxEEEC1IiEEOT_, symObjAddr: 0x2174, symBinAddr: 0x24310, symSize: 0x34 }
  - { offsetInCU: 0x4B2B, offset: 0x303F3, size: 0x8, addend: 0x0, symName: __ZN2bq8platform6atomicIyEC1ERKy, symObjAddr: 0x21A8, symBinAddr: 0x24344, symSize: 0x34 }
  - { offsetInCU: 0x4B61, offset: 0x30429, size: 0x8, addend: 0x0, symName: __ZN2bq19cache_friendly_typeINS_8platform6atomicIxEEEC2IiEEOT_, symObjAddr: 0x21DC, symBinAddr: 0x24378, symSize: 0x4C }
  - { offsetInCU: 0x4BA0, offset: 0x30468, size: 0x8, addend: 0x0, symName: __ZN2bq8platform6atomicIxEC1ERKx, symObjAddr: 0x223C, symBinAddr: 0x243D8, symSize: 0x34 }
  - { offsetInCU: 0x4BD6, offset: 0x3049E, size: 0x8, addend: 0x0, symName: __ZN2bq8platform6atomicIxEC2ERKx, symObjAddr: 0x2270, symBinAddr: 0x2440C, symSize: 0x34 }
  - { offsetInCU: 0x4C0C, offset: 0x304D4, size: 0x8, addend: 0x0, symName: __ZN2bq8platform12_atomic_baseIxLm8EEC2ERKx, symObjAddr: 0x22A4, symBinAddr: 0x24440, symSize: 0x24 }
  - { offsetInCU: 0x4C42, offset: 0x3050A, size: 0x8, addend: 0x0, symName: __ZN2bq8platform6atomicIyEC2ERKy, symObjAddr: 0x22C8, symBinAddr: 0x24464, symSize: 0x34 }
  - { offsetInCU: 0x4C78, offset: 0x30540, size: 0x8, addend: 0x0, symName: __ZN2bq8platform12_atomic_baseIyLm8EEC2ERKy, symObjAddr: 0x22FC, symBinAddr: 0x24498, symSize: 0x24 }
  - { offsetInCU: 0x4CAE, offset: 0x30576, size: 0x8, addend: 0x0, symName: __ZN2bq8platform27scoped_spin_lock_read_crazyC2ERNS0_18spin_lock_rw_crazyE, symObjAddr: 0x2320, symBinAddr: 0x244BC, symSize: 0x3C }
  - { offsetInCU: 0x4D8A, offset: 0x30652, size: 0x8, addend: 0x0, symName: __ZN2bq8platform18spin_lock_rw_crazy9read_lockEv, symObjAddr: 0x235C, symBinAddr: 0x244F8, symSize: 0x35C }
  - { offsetInCU: 0x4E95, offset: 0x3075D, size: 0x8, addend: 0x0, symName: __ZN2bq19cache_friendly_typeINS_8platform6atomicIxEEE3getEv, symObjAddr: 0x26B8, symBinAddr: 0x24854, symSize: 0x18 }
  - { offsetInCU: 0x4EB9, offset: 0x30781, size: 0x8, addend: 0x0, symName: __ZN2bq8platform27scoped_spin_lock_read_crazyD2Ev, symObjAddr: 0x26D0, symBinAddr: 0x2486C, symSize: 0x30 }
  - { offsetInCU: 0x4EE1, offset: 0x307A9, size: 0x8, addend: 0x0, symName: __ZN2bq8platform18spin_lock_rw_crazy11read_unlockEv, symObjAddr: 0x2700, symBinAddr: 0x2489C, symSize: 0x2C0 }
  - { offsetInCU: 0x4F72, offset: 0x3083A, size: 0x8, addend: 0x0, symName: __ZN2bq8platform28scoped_spin_lock_write_crazyC2ERNS0_18spin_lock_rw_crazyE, symObjAddr: 0x29C0, symBinAddr: 0x24B5C, symSize: 0x3C }
  - { offsetInCU: 0x50D8, offset: 0x309A0, size: 0x8, addend: 0x0, symName: __ZN2bq8platform18spin_lock_rw_crazy10write_lockEv, symObjAddr: 0x29FC, symBinAddr: 0x24B98, symSize: 0x74C }
  - { offsetInCU: 0x5480, offset: 0x30D48, size: 0x8, addend: 0x0, symName: __ZN2bq8platform28scoped_spin_lock_write_crazyD2Ev, symObjAddr: 0x3148, symBinAddr: 0x252E4, symSize: 0x30 }
  - { offsetInCU: 0x54FC, offset: 0x30DC4, size: 0x8, addend: 0x0, symName: __ZN2bq8platform18spin_lock_rw_crazy12write_unlockEv, symObjAddr: 0x3178, symBinAddr: 0x25314, symSize: 0x190 }
  - { offsetInCU: 0x568A, offset: 0x30F52, size: 0x8, addend: 0x0, symName: __ZNK2bq5arrayIcLm0EE8is_emptyEv, symObjAddr: 0x33BC, symBinAddr: 0x254A4, symSize: 0x24 }
  - { offsetInCU: 0x56B1, offset: 0x30F79, size: 0x8, addend: 0x0, symName: __ZN2bq16appender_console19console_static_miscC2Ev, symObjAddr: 0x3454, symBinAddr: 0x254C8, symSize: 0x38 }
  - { offsetInCU: 0x56DB, offset: 0x30FA3, size: 0x8, addend: 0x0, symName: __ZN2bq16appender_console17console_callbacksC1Ev, symObjAddr: 0x348C, symBinAddr: 0x25500, symSize: 0x2C }
  - { offsetInCU: 0x5705, offset: 0x30FCD, size: 0x8, addend: 0x0, symName: __ZN2bq16appender_console17console_callbacksC2Ev, symObjAddr: 0x34B8, symBinAddr: 0x2552C, symSize: 0x3C }
  - { offsetInCU: 0x572F, offset: 0x30FF7, size: 0x8, addend: 0x0, symName: __ZN2bq8hash_mapIPFvyiiPKciEbEC1Ej, symObjAddr: 0x34F4, symBinAddr: 0x25568, symSize: 0x34 }
  - { offsetInCU: 0x5767, offset: 0x3102F, size: 0x8, addend: 0x0, symName: __ZN2bq8hash_mapIPFvyiiPKciEbEC2Ej, symObjAddr: 0x3528, symBinAddr: 0x2559C, symSize: 0x78 }
  - { offsetInCU: 0x579F, offset: 0x31067, size: 0x8, addend: 0x0, symName: __ZN2bq8hash_mapIPFvyiiPKciEbE22value_node_buffer_headIjEC1Ev, symObjAddr: 0x35A0, symBinAddr: 0x25614, symSize: 0x2C }
  - { offsetInCU: 0x57C7, offset: 0x3108F, size: 0x8, addend: 0x0, symName: __ZN2bq8hash_mapIPFvyiiPKciEbE22value_node_buffer_headINS5_10value_nodeEEC1Ev, symObjAddr: 0x35CC, symBinAddr: 0x25640, symSize: 0x2C }
  - { offsetInCU: 0x57EF, offset: 0x310B7, size: 0x8, addend: 0x0, symName: __ZN2bq8hash_mapIPFvyiiPKciEbE14expand_bucketsEj, symObjAddr: 0x35F8, symBinAddr: 0x2566C, symSize: 0x494 }
  - { offsetInCU: 0x58F4, offset: 0x311BC, size: 0x8, addend: 0x0, symName: __ZNK2bq8hash_mapIPFvyiiPKciEbE12buckets_sizeEv, symObjAddr: 0x3D50, symBinAddr: 0x25DC4, symSize: 0x24 }
  - { offsetInCU: 0x591A, offset: 0x311E2, size: 0x8, addend: 0x0, symName: __ZN2bq8hash_mapIPFvyiiPKciEbE22value_node_buffer_headIjEC2Ev, symObjAddr: 0x3D74, symBinAddr: 0x25DE8, symSize: 0x1C }
  - { offsetInCU: 0x5942, offset: 0x3120A, size: 0x8, addend: 0x0, symName: __ZN2bq8hash_mapIPFvyiiPKciEbE22value_node_buffer_headINS5_10value_nodeEEC2Ev, symObjAddr: 0x3D90, symBinAddr: 0x25E04, symSize: 0x1C }
  - { offsetInCU: 0x596A, offset: 0x31232, size: 0x8, addend: 0x0, symName: __ZNK2bq8hash_mapIPFvyiiPKciEbE22value_node_buffer_headIjE4sizeEv, symObjAddr: 0x3E30, symBinAddr: 0x25E20, symSize: 0x18 }
  - { offsetInCU: 0x598E, offset: 0x31256, size: 0x8, addend: 0x0, symName: __ZN2bq8hash_mapIPFvyiiPKciEbE22value_node_buffer_headIjEixEj, symObjAddr: 0x3E48, symBinAddr: 0x25E38, symSize: 0x74 }
  - { offsetInCU: 0x59C0, offset: 0x31288, size: 0x8, addend: 0x0, symName: __ZN2bq8hash_mapIPFvyiiPKciEbE22value_node_buffer_headINS5_10value_nodeEEixEj, symObjAddr: 0x3EBC, symBinAddr: 0x25EAC, symSize: 0x74 }
  - { offsetInCU: 0x59F2, offset: 0x312BA, size: 0x8, addend: 0x0, symName: __ZNK2bq8hash_mapIPFvyiiPKciEbE23get_bucket_index_by_keyERKS4_, symObjAddr: 0x3F30, symBinAddr: 0x25F20, symSize: 0x44 }
  - { offsetInCU: 0x5A37, offset: 0x312FF, size: 0x8, addend: 0x0, symName: __ZNK2bq8hash_mapIPFvyiiPKciEbE4sizeEv, symObjAddr: 0x3F74, symBinAddr: 0x25F64, symSize: 0x18 }
  - { offsetInCU: 0x5A5D, offset: 0x31325, size: 0x8, addend: 0x0, symName: __ZN2bq28pointer_type_hash_calculatorIPFvyiiPKciEE9hash_codeERKS4_, symObjAddr: 0x3F8C, symBinAddr: 0x25F7C, symSize: 0x28 }
  - { offsetInCU: 0x5A9B, offset: 0x31363, size: 0x8, addend: 0x0, symName: __ZNK2bq8hash_mapIPFvyiiPKciEbE24get_bucket_index_by_hashEy, symObjAddr: 0x3FB4, symBinAddr: 0x25FA4, symSize: 0x3C }
  - { offsetInCU: 0x5AD1, offset: 0x31399, size: 0x8, addend: 0x0, symName: __ZNK2bq8hash_mapIPFvyiiPKciEbE22value_node_buffer_headINS5_10value_nodeEE4sizeEv, symObjAddr: 0x3FF0, symBinAddr: 0x25FE0, symSize: 0x18 }
  - { offsetInCU: 0x5AF5, offset: 0x313BD, size: 0x8, addend: 0x0, symName: __ZN2bq17hash_map_iteratorIPFvyiiPKciEbLb0EEdeEv, symObjAddr: 0x4038, symBinAddr: 0x2600C, symSize: 0x34 }
  - { offsetInCU: 0x5B1B, offset: 0x313E3, size: 0x8, addend: 0x0, symName: __ZN2bq8hash_mapIPFvyiiPKciEbE8destructERNS_17hash_map_iteratorIS4_bLb0EEE, symObjAddr: 0x4080, symBinAddr: 0x26040, symSize: 0x3C }
  - { offsetInCU: 0x5B51, offset: 0x31419, size: 0x8, addend: 0x0, symName: __ZN2bq8hash_mapIPFvyiiPKciEbE12destruct_keyERNS_17hash_map_iteratorIS4_bLb0EEE, symObjAddr: 0x40BC, symBinAddr: 0x2607C, symSize: 0x2C }
  - { offsetInCU: 0x5B87, offset: 0x3144F, size: 0x8, addend: 0x0, symName: __ZN2bq8hash_mapIPFvyiiPKciEbE14destruct_valueERNS_17hash_map_iteratorIS4_bLb0EEE, symObjAddr: 0x40E8, symBinAddr: 0x260A8, symSize: 0x30 }
  - { offsetInCU: 0x5BC1, offset: 0x31489, size: 0x8, addend: 0x0, symName: __ZN2bq17object_destructorIPFvyiiPKciEE8destructEPS4_, symObjAddr: 0x4118, symBinAddr: 0x260D8, symSize: 0x24 }
  - { offsetInCU: 0x5BE3, offset: 0x314AB, size: 0x8, addend: 0x0, symName: __ZN2bq17object_destructorIPFvyiiPKciEE15destructor_implIS4_NS5_23trivial_destructor_typeEE8destructEPS4_, symObjAddr: 0x413C, symBinAddr: 0x260FC, symSize: 0x10 }
  - { offsetInCU: 0x5C05, offset: 0x314CD, size: 0x8, addend: 0x0, symName: __ZN2bq17object_destructorIbE8destructEPb, symObjAddr: 0x414C, symBinAddr: 0x2610C, symSize: 0x24 }
  - { offsetInCU: 0x5C27, offset: 0x314EF, size: 0x8, addend: 0x0, symName: __ZN2bq7kv_pairIPFvyiiPKciEbE5valueEv, symObjAddr: 0x4170, symBinAddr: 0x26130, symSize: 0x18 }
  - { offsetInCU: 0x5C4B, offset: 0x31513, size: 0x8, addend: 0x0, symName: __ZN2bq17object_destructorIbE15destructor_implIbNS1_23trivial_destructor_typeEE8destructEPb, symObjAddr: 0x4188, symBinAddr: 0x26148, symSize: 0x10 }
  - { offsetInCU: 0x5C6D, offset: 0x31535, size: 0x8, addend: 0x0, symName: __ZN2bq16appender_console19console_static_miscD2Ev, symObjAddr: 0x4198, symBinAddr: 0x26158, symSize: 0x38 }
  - { offsetInCU: 0x5C97, offset: 0x3155F, size: 0x8, addend: 0x0, symName: __ZN2bq16appender_console17console_callbacksD1Ev, symObjAddr: 0x41D0, symBinAddr: 0x26190, symSize: 0x2C }
  - { offsetInCU: 0x5CC1, offset: 0x31589, size: 0x8, addend: 0x0, symName: __ZN2bq16appender_console17console_callbacksD2Ev, symObjAddr: 0x41FC, symBinAddr: 0x261BC, symSize: 0x38 }
  - { offsetInCU: 0x5CEB, offset: 0x315B3, size: 0x8, addend: 0x0, symName: __ZN2bq8hash_mapIPFvyiiPKciEbED1Ev, symObjAddr: 0x4234, symBinAddr: 0x261F4, symSize: 0x2C }
  - { offsetInCU: 0x5D15, offset: 0x315DD, size: 0x8, addend: 0x0, symName: __ZN2bq8hash_mapIPFvyiiPKciEbED2Ev, symObjAddr: 0x4260, symBinAddr: 0x26220, symSize: 0x2C }
  - { offsetInCU: 0x5D3F, offset: 0x31607, size: 0x8, addend: 0x0, symName: __ZN2bq8hash_mapIPFvyiiPKciEbE5resetEv, symObjAddr: 0x428C, symBinAddr: 0x2624C, symSize: 0xF8 }
  - { offsetInCU: 0x5D83, offset: 0x3164B, size: 0x8, addend: 0x0, symName: __ZN2bq16appender_consoleD2Ev, symObjAddr: 0x4384, symBinAddr: 0x26344, symSize: 0x54 }
  - { offsetInCU: 0x5DAD, offset: 0x31675, size: 0x8, addend: 0x0, symName: __ZNK2bq17hash_map_iteratorIPFvyiiPKciEbLb0EEcvbEv, symObjAddr: 0x4DD8, symBinAddr: 0x26398, symSize: 0x44 }
  - { offsetInCU: 0x5DD3, offset: 0x3169B, size: 0x8, addend: 0x0, symName: __ZN2bq8hash_mapIPFvyiiPKciEbE3addERKS4_, symObjAddr: 0x4E1C, symBinAddr: 0x263DC, symSize: 0x64 }
  - { offsetInCU: 0x5E15, offset: 0x316DD, size: 0x8, addend: 0x0, symName: __ZNK2bq8hash_mapIPFvyiiPKciEbE20iterator_legal_checkERKNS_17hash_map_iteratorIS4_bLb1EEE, symObjAddr: 0x4E80, symBinAddr: 0x26440, symSize: 0x124 }
  - { offsetInCU: 0x5E4F, offset: 0x31717, size: 0x8, addend: 0x0, symName: __ZN2bq17hash_map_iteratorIPFvyiiPKciEbLb1EEC1ILb0EEERKNS0_IS4_bXT_EEE, symObjAddr: 0x4FA4, symBinAddr: 0x26564, symSize: 0x34 }
  - { offsetInCU: 0x5E8F, offset: 0x31757, size: 0x8, addend: 0x0, symName: __ZNK2bq8hash_mapIPFvyiiPKciEbE22value_node_buffer_headINS5_10value_nodeEEixEj, symObjAddr: 0x4FD8, symBinAddr: 0x26598, symSize: 0x74 }
  - { offsetInCU: 0x5EC1, offset: 0x31789, size: 0x8, addend: 0x0, symName: __ZN2bq17hash_map_iteratorIPFvyiiPKciEbLb1EEC2ILb0EEERKNS0_IS4_bXT_EEE, symObjAddr: 0x504C, symBinAddr: 0x2660C, symSize: 0x3C }
  - { offsetInCU: 0x5F01, offset: 0x317C9, size: 0x8, addend: 0x0, symName: __ZN2bq8hash_mapIPFvyiiPKciEbE17alloc_node_by_keyERKS4_, symObjAddr: 0x5088, symBinAddr: 0x26648, symSize: 0x304 }
  - { offsetInCU: 0x5FF9, offset: 0x318C1, size: 0x8, addend: 0x0, symName: __ZN2bq8hash_mapIPFvyiiPKciEbE15construct_valueERNS_17hash_map_iteratorIS4_bLb0EEE, symObjAddr: 0x538C, symBinAddr: 0x2694C, symSize: 0x5C }
  - { offsetInCU: 0x602E, offset: 0x318F6, size: 0x8, addend: 0x0, symName: __ZNK2bq8hash_mapIPFvyiiPKciEbE32find_index_and_bucket_idx_by_keyERKS4_, symObjAddr: 0x53E8, symBinAddr: 0x269A8, symSize: 0x120 }
  - { offsetInCU: 0x60BC, offset: 0x31984, size: 0x8, addend: 0x0, symName: __ZNK2bq8hash_mapIPFvyiiPKciEbE10nodes_sizeEv, symObjAddr: 0x5534, symBinAddr: 0x26AC8, symSize: 0x28 }
  - { offsetInCU: 0x60E2, offset: 0x319AA, size: 0x8, addend: 0x0, symName: __ZN2bq17hash_map_iteratorIPFvyiiPKciEbLb0EEC1EPNS_8hash_mapIS4_bEEjj, symObjAddr: 0x555C, symBinAddr: 0x26AF0, symSize: 0x44 }
  - { offsetInCU: 0x6134, offset: 0x319FC, size: 0x8, addend: 0x0, symName: __ZN2bq8hash_mapIPFvyiiPKciEbE13construct_keyIRKS4_EEvRNS_17hash_map_iteratorIS4_bLb0EEEOT_, symObjAddr: 0x55A0, symBinAddr: 0x26B34, symSize: 0x68 }
  - { offsetInCU: 0x6180, offset: 0x31A48, size: 0x8, addend: 0x0, symName: __ZNK2bq8hash_mapIPFvyiiPKciEbE22value_node_buffer_headIjEixEj, symObjAddr: 0x5608, symBinAddr: 0x26B9C, symSize: 0x74 }
  - { offsetInCU: 0x61B2, offset: 0x31A7A, size: 0x8, addend: 0x0, symName: __ZN2bq17hash_map_iteratorIPFvyiiPKciEbLb0EEC2EPNS_8hash_mapIS4_bEEjj, symObjAddr: 0x5724, symBinAddr: 0x26C10, symSize: 0x38 }
  - { offsetInCU: 0x6204, offset: 0x31ACC, size: 0x8, addend: 0x0, symName: __ZNK2bq8hash_mapIPFvyiiPKciEbE19get_next_node_indexEj, symObjAddr: 0x5854, symBinAddr: 0x26D40, symSize: 0x68 }
  - { offsetInCU: 0x26, offset: 0x31B91, size: 0x8, addend: 0x0, symName: __ZN2bq18appender_file_baseD2Ev, symObjAddr: 0x0, symBinAddr: 0x26DA8, symSize: 0x80 }
  - { offsetInCU: 0x349D, offset: 0x35008, size: 0x8, addend: 0x0, symName: __ZN2bq10make_tupleIJRyRNS_11string_baseIcEEyEEENS_5tupleIJDpNS_5decayIT_E4typeEEEEDpOS7_, symObjAddr: 0x3508, symBinAddr: 0x297A8, symSize: 0x60 }
  - { offsetInCU: 0x34FE, offset: 0x35069, size: 0x8, addend: 0x0, symName: __ZN2bqneINS_5tupleIJyNS_11string_baseIcEEyEEES4_NS_5arrayIS4_Lm0EEES6_EEbRKNS_14array_iteratorIT_T1_EERKNS7_IT0_T2_EE, symObjAddr: 0x36B8, symBinAddr: 0x29958, symSize: 0xA0 }
  - { offsetInCU: 0x355C, offset: 0x350C7, size: 0x8, addend: 0x0, symName: __ZN2bq3getILm1EJyNS_11string_baseIcEEyEEERNS_13tuple_elementIXT_ENS_5tupleIJDpT0_EEEE4typeERS7_, symObjAddr: 0x3770, symBinAddr: 0x29A10, symSize: 0x28 }
  - { offsetInCU: 0x35A9, offset: 0x35114, size: 0x8, addend: 0x0, symName: __ZN2bq3getILm2EJyNS_11string_baseIcEEyEEERNS_13tuple_elementIXT_ENS_5tupleIJDpT0_EEEE4typeERS7_, symObjAddr: 0x3798, symBinAddr: 0x29A38, symSize: 0x28 }
  - { offsetInCU: 0x35F6, offset: 0x35161, size: 0x8, addend: 0x0, symName: __ZN2bq3getILm0EJyNS_11string_baseIcEEyEEERKNS_13tuple_elementIXT_ENS_5tupleIJDpT0_EEEE4typeERKS7_, symObjAddr: 0x4838, symBinAddr: 0x29CB0, symSize: 0x24 }
  - { offsetInCU: 0x3643, offset: 0x351AE, size: 0x8, addend: 0x0, symName: __ZN2bq15_inner_mem_copyIhEENS_9enable_ifIXaasr2bq31is_trivially_copy_constructibleIT_EE5valuesr2bq31is_trivially_move_constructibleIS2_EE5valueEvE4typeEPS2_S5_m, symObjAddr: 0x500C, symBinAddr: 0x2A07C, symSize: 0x40 }
  - { offsetInCU: 0x36A7, offset: 0x35212, size: 0x8, addend: 0x0, symName: __ZN2bqgeIhhNS_5arrayIhLm0EEES2_EEbRKNS_14array_iteratorIT_T1_EERKNS3_IT0_T2_EE, symObjAddr: 0x5124, symBinAddr: 0x2A0BC, symSize: 0xA0 }
  - { offsetInCU: 0x3705, offset: 0x35270, size: 0x8, addend: 0x0, symName: __ZN2bqltIhhNS_5arrayIhLm0EEES2_EEbRKNS_14array_iteratorIT_T1_EERKNS3_IT0_T2_EE, symObjAddr: 0x51C4, symBinAddr: 0x2A15C, symSize: 0xA0 }
  - { offsetInCU: 0x3763, offset: 0x352CE, size: 0x8, addend: 0x0, symName: __ZN2bqmiIhhNS_5arrayIhLm0EEES2_EENS_14array_iteratorIT_T1_E9diff_typeERKS6_RKNS3_IT0_T2_EE, symObjAddr: 0x5264, symBinAddr: 0x2A1FC, symSize: 0x98 }
  - { offsetInCU: 0x37C1, offset: 0x3532C, size: 0x8, addend: 0x0, symName: __ZN2bq20_inner_backward_moveIhEENS_9enable_ifIXaasr2bq28is_trivially_move_assignableIT_EE5valuesr2bq28is_trivially_copy_assignableIS2_EE5valueEvE4typeEPS2_S5_m, symObjAddr: 0x534C, symBinAddr: 0x2A294, symSize: 0x3C }
  - { offsetInCU: 0x38CC, offset: 0x35437, size: 0x8, addend: 0x0, symName: __ZN2bq7forwardIRyEEOT_RNS_16remove_referenceIS2_E4typeE, symObjAddr: 0x57F8, symBinAddr: 0x2A4B0, symSize: 0x14 }
  - { offsetInCU: 0x3901, offset: 0x3546C, size: 0x8, addend: 0x0, symName: __ZN2bq7forwardIyEEOT_RNS_16remove_referenceIS1_E4typeE, symObjAddr: 0x5820, symBinAddr: 0x2A4C4, symSize: 0x14 }
  - { offsetInCU: 0x3936, offset: 0x354A1, size: 0x8, addend: 0x0, symName: __ZN2bq7forwardINS_5tupleIJyNS_11string_baseIcEEyEEEEEOT_RNS_16remove_referenceIS5_E4typeE, symObjAddr: 0x5D8C, symBinAddr: 0x2A9B0, symSize: 0x14 }
  - { offsetInCU: 0x396B, offset: 0x354D6, size: 0x8, addend: 0x0, symName: __ZN2bqgeINS_5tupleIJyNS_11string_baseIcEEyEEES4_NS_5arrayIS4_Lm0EEES6_EEbRKNS_14array_iteratorIT_T1_EERKNS7_IT0_T2_EE, symObjAddr: 0x5DA0, symBinAddr: 0x2A9C4, symSize: 0xA0 }
  - { offsetInCU: 0x39C9, offset: 0x35534, size: 0x8, addend: 0x0, symName: __ZN2bqleINS_5tupleIJyNS_11string_baseIcEEyEEES4_NS_5arrayIS4_Lm0EEES6_EEbRKNS_14array_iteratorIT_T1_EERKNS7_IT0_T2_EE, symObjAddr: 0x5E40, symBinAddr: 0x2AA64, symSize: 0xA0 }
  - { offsetInCU: 0x3A27, offset: 0x35592, size: 0x8, addend: 0x0, symName: __ZN2bqmiINS_5tupleIJyNS_11string_baseIcEEyEEES4_NS_5arrayIS4_Lm0EEES6_EENS_14array_iteratorIT_T1_E9diff_typeERKSA_RKNS7_IT0_T2_EE, symObjAddr: 0x5EE0, symBinAddr: 0x2AB04, symSize: 0xA0 }
  - { offsetInCU: 0x3A85, offset: 0x355F0, size: 0x8, addend: 0x0, symName: __ZN2bq19_inner_forward_moveINS_5tupleIJyNS_11string_baseIcEEyEEEEENS_9enable_ifIXntaasr2bq31is_trivially_copy_constructibleIT_EE5valuesr2bq31is_trivially_move_constructibleIS6_EE5valueEvE4typeEPS6_S9_m, symObjAddr: 0x620C, symBinAddr: 0x2AE30, symSize: 0x140 }
  - { offsetInCU: 0x3B40, offset: 0x356AB, size: 0x8, addend: 0x0, symName: __ZN2bq15_inner_mem_copyINS_5tupleIJyNS_11string_baseIcEEyEEEEENS_9enable_ifIXntaasr2bq31is_trivially_copy_constructibleIT_EE5valuesr2bq31is_trivially_move_constructibleIS6_EE5valueEvE4typeEPS6_S9_m, symObjAddr: 0x63F4, symBinAddr: 0x2B018, symSize: 0xCC }
  - { offsetInCU: 0x3BB2, offset: 0x3571D, size: 0x8, addend: 0x0, symName: __ZN2bq4moveIRNS_5tupleIJyNS_11string_baseIcEEyEEEEEONS_16remove_referenceIT_E4typeEOS7_, symObjAddr: 0x64DC, symBinAddr: 0x2B0E4, symSize: 0x14 }
  - { offsetInCU: 0x46D4, offset: 0x3623F, size: 0x8, addend: 0x0, symName: __ZN2bq18appender_file_baseD2Ev, symObjAddr: 0x0, symBinAddr: 0x26DA8, symSize: 0x80 }
  - { offsetInCU: 0x46FE, offset: 0x36269, size: 0x8, addend: 0x0, symName: __ZN2bq5arrayIhLm0EED1Ev, symObjAddr: 0x80, symBinAddr: 0x26E28, symSize: 0x2C }
  - { offsetInCU: 0x4728, offset: 0x36293, size: 0x8, addend: 0x0, symName: __ZN2bq18appender_file_baseD1Ev, symObjAddr: 0xD8, symBinAddr: 0x26E54, symSize: 0x14 }
  - { offsetInCU: 0x4752, offset: 0x362BD, size: 0x8, addend: 0x0, symName: __ZN2bq18appender_file_baseD0Ev, symObjAddr: 0xEC, symBinAddr: 0x26E68, symSize: 0xC }
  - { offsetInCU: 0x47B3, offset: 0x3631E, size: 0x8, addend: 0x0, symName: __ZN2bq18appender_file_base11flush_cacheEv, symObjAddr: 0x114, symBinAddr: 0x26E74, symSize: 0x3D4 }
  - { offsetInCU: 0x48DC, offset: 0x36447, size: 0x8, addend: 0x0, symName: __ZNK2bq5arrayIhLm0EE4sizeEv, symObjAddr: 0x4E8, symBinAddr: 0x27248, symSize: 0x18 }
  - { offsetInCU: 0x4903, offset: 0x3646E, size: 0x8, addend: 0x0, symName: __ZN2bq5arrayIhLm0EE5beginEv, symObjAddr: 0x500, symBinAddr: 0x27260, symSize: 0x34 }
  - { offsetInCU: 0x492A, offset: 0x36495, size: 0x8, addend: 0x0, symName: __ZN2bq14array_iteratorIhNS_5arrayIhLm0EEEEplEm, symObjAddr: 0x534, symBinAddr: 0x27294, symSize: 0x44 }
  - { offsetInCU: 0x496C, offset: 0x364D7, size: 0x8, addend: 0x0, symName: __ZNK2bq14array_iteratorIhNS_5arrayIhLm0EEEEcvPhEv, symObjAddr: 0x578, symBinAddr: 0x272D8, symSize: 0x18 }
  - { offsetInCU: 0x4992, offset: 0x364FD, size: 0x8, addend: 0x0, symName: __ZN2bq5arrayIhLm0EE5clearEv, symObjAddr: 0x590, symBinAddr: 0x272F0, symSize: 0x6C }
  - { offsetInCU: 0x49B9, offset: 0x36524, size: 0x8, addend: 0x0, symName: __ZNK2bq5arrayIhLm0EE8capacityEv, symObjAddr: 0x5FC, symBinAddr: 0x2735C, symSize: 0x18 }
  - { offsetInCU: 0x49E0, offset: 0x3654B, size: 0x8, addend: 0x0, symName: __ZN2bq5arrayIhLm0EE6shrinkEv, symObjAddr: 0x614, symBinAddr: 0x27374, symSize: 0x30 }
  - { offsetInCU: 0x4A07, offset: 0x36572, size: 0x8, addend: 0x0, symName: __ZN2bq18appender_file_base29open_new_indexed_file_by_nameEv, symObjAddr: 0x678, symBinAddr: 0x273A4, symSize: 0x5D4 }
  - { offsetInCU: 0x4C3A, offset: 0x367A5, size: 0x8, addend: 0x0, symName: __ZN2bq18appender_file_base8flush_ioEv, symObjAddr: 0xC4C, symBinAddr: 0x27978, symSize: 0x1FC }
  - { offsetInCU: 0x4CFB, offset: 0x36866, size: 0x8, addend: 0x0, symName: __ZN2bq18appender_file_base9init_implERKNS_14property_valueE, symObjAddr: 0xED0, symBinAddr: 0x27B74, symSize: 0x4FC }
  - { offsetInCU: 0x4D97, offset: 0x36902, size: 0x8, addend: 0x0, symName: __ZNK2bq14property_valuecvyEv, symObjAddr: 0x1648, symBinAddr: 0x28070, symSize: 0x30 }
  - { offsetInCU: 0x4DBB, offset: 0x36926, size: 0x8, addend: 0x0, symName: __ZN2bq18appender_file_base8log_implERKNS_16log_entry_handleE, symObjAddr: 0x1678, symBinAddr: 0x280A0, symSize: 0x2C }
  - { offsetInCU: 0x4E08, offset: 0x36973, size: 0x8, addend: 0x0, symName: __ZN2bq18appender_file_base19refresh_file_handleERKNS_16log_entry_handleE, symObjAddr: 0x16A4, symBinAddr: 0x280CC, symSize: 0x228 }
  - { offsetInCU: 0x4F31, offset: 0x36A9C, size: 0x8, addend: 0x0, symName: __ZN2bq18appender_file_base12on_file_openEb, symObjAddr: 0x18CC, symBinAddr: 0x282F4, symSize: 0x18 }
  - { offsetInCU: 0x4F65, offset: 0x36AD0, size: 0x8, addend: 0x0, symName: __ZN2bq18appender_file_base23seek_read_file_absoluteEm, symObjAddr: 0x18E4, symBinAddr: 0x2830C, symSize: 0x48 }
  - { offsetInCU: 0x4F99, offset: 0x36B04, size: 0x8, addend: 0x0, symName: __ZN2bq18appender_file_base16clear_read_cacheEv, symObjAddr: 0x192C, symBinAddr: 0x28354, symSize: 0x5C }
  - { offsetInCU: 0x4FBF, offset: 0x36B2A, size: 0x8, addend: 0x0, symName: __ZN2bq18appender_file_base21seek_read_file_offsetEi, symObjAddr: 0x1988, symBinAddr: 0x283B0, symSize: 0xAC }
  - { offsetInCU: 0x5001, offset: 0x36B6C, size: 0x8, addend: 0x0, symName: __ZN2bq18appender_file_base15read_with_cacheEm, symObjAddr: 0x1A34, symBinAddr: 0x2845C, symSize: 0x250 }
  - { offsetInCU: 0x508C, offset: 0x36BF7, size: 0x8, addend: 0x0, symName: __ZN2bq5arrayIhLm0EE5eraseENS_14array_iteratorIhS1_EEm, symObjAddr: 0x1C84, symBinAddr: 0x286AC, symSize: 0x238 }
  - { offsetInCU: 0x50EF, offset: 0x36C5A, size: 0x8, addend: 0x0, symName: __ZN2bq5arrayIhLm0EE18fill_uninitializedIhEENS_9enable_ifIXsr2bq6is_podIT_EE5valueEvE4typeEm, symObjAddr: 0x1F14, symBinAddr: 0x288E4, symSize: 0xBC }
  - { offsetInCU: 0x512D, offset: 0x36C98, size: 0x8, addend: 0x0, symName: __ZN2bq18appender_file_base22write_with_cache_allocEm, symObjAddr: 0x2028, symBinAddr: 0x289A0, symSize: 0xD4 }
  - { offsetInCU: 0x5171, offset: 0x36CDC, size: 0x8, addend: 0x0, symName: __ZN2bq5arrayIhLm0EE3endEv, symObjAddr: 0x20FC, symBinAddr: 0x28A74, symSize: 0x3C }
  - { offsetInCU: 0x5198, offset: 0x36D03, size: 0x8, addend: 0x0, symName: __ZN2bq18appender_file_base23write_with_cache_commitERKNS0_23write_with_cache_handleE, symObjAddr: 0x2138, symBinAddr: 0x28AB0, symSize: 0x184 }
  - { offsetInCU: 0x51CC, offset: 0x36D37, size: 0x8, addend: 0x0, symName: __ZN2bq5arrayIhLm0EE8pop_backEm, symObjAddr: 0x22BC, symBinAddr: 0x28C34, symSize: 0xAC }
  - { offsetInCU: 0x5201, offset: 0x36D6C, size: 0x8, addend: 0x0, symName: __ZN2bq18appender_file_base21get_current_file_sizeEv, symObjAddr: 0x2380, symBinAddr: 0x28CE0, symSize: 0x18 }
  - { offsetInCU: 0x5227, offset: 0x36D92, size: 0x8, addend: 0x0, symName: __ZN2bq18appender_file_base16is_file_oversizeEv, symObjAddr: 0x2398, symBinAddr: 0x28CF8, symSize: 0x7C }
  - { offsetInCU: 0x524E, offset: 0x36DB9, size: 0x8, addend: 0x0, symName: __ZN2bq18appender_file_base30open_file_with_write_exclusiveERKNS_11string_baseIcEE, symObjAddr: 0x2414, symBinAddr: 0x28D74, symSize: 0x194 }
  - { offsetInCU: 0x5338, offset: 0x36EA3, size: 0x8, addend: 0x0, symName: __ZN2bq18appender_file_base23clear_all_expired_filesEv, symObjAddr: 0x25A8, symBinAddr: 0x28F08, symSize: 0x29C }
  - { offsetInCU: 0x5442, offset: 0x36FAD, size: 0x8, addend: 0x0, symName: __ZN2bq18appender_file_base21clear_all_limit_filesEv, symObjAddr: 0x2844, symBinAddr: 0x291A4, symSize: 0x438 }
  - { offsetInCU: 0x561E, offset: 0x37189, size: 0x8, addend: 0x0, symName: __ZNK2bq11string_baseIcE8end_withERKS1_, symObjAddr: 0x2FE8, symBinAddr: 0x295DC, symSize: 0xE8 }
  - { offsetInCU: 0x5654, offset: 0x371BF, size: 0x8, addend: 0x0, symName: __ZN2bq18appender_file_base18parse_file_contextC1ERKNS_11string_baseIcEE, symObjAddr: 0x33F8, symBinAddr: 0x296C4, symSize: 0x34 }
  - { offsetInCU: 0x5689, offset: 0x371F4, size: 0x8, addend: 0x0, symName: __ZN2bq18appender_file_base18parse_file_contextD1Ev, symObjAddr: 0x342C, symBinAddr: 0x296F8, symSize: 0x2C }
  - { offsetInCU: 0x56B3, offset: 0x3721E, size: 0x8, addend: 0x0, symName: __ZN2bq5arrayINS_5tupleIJyNS_11string_baseIcEEyEEELm0EEC1Ev, symObjAddr: 0x3484, symBinAddr: 0x29724, symSize: 0x2C }
  - { offsetInCU: 0x56DD, offset: 0x37248, size: 0x8, addend: 0x0, symName: __ZN2bq5arrayINS_5tupleIJyNS_11string_baseIcEEyEEELm0EE9push_backIJS4_EEEmDpOT_, symObjAddr: 0x34B0, symBinAddr: 0x29750, symSize: 0x58 }
  - { offsetInCU: 0x571E, offset: 0x37289, size: 0x8, addend: 0x0, symName: __ZN2bq5tupleIJyNS_11string_baseIcEEyEED1Ev, symObjAddr: 0x3568, symBinAddr: 0x29808, symSize: 0x2C }
  - { offsetInCU: 0x5748, offset: 0x372B3, size: 0x8, addend: 0x0, symName: __ZNK2bq5arrayINS_5tupleIJyNS_11string_baseIcEEyEEELm0EE4sizeEv, symObjAddr: 0x3594, symBinAddr: 0x29834, symSize: 0x18 }
  - { offsetInCU: 0x576F, offset: 0x372DA, size: 0x8, addend: 0x0, symName: __ZN2bq5arrayINS_5tupleIJyNS_11string_baseIcEEyEEELm0EEixEm, symObjAddr: 0x35AC, symBinAddr: 0x2984C, symSize: 0x7C }
  - { offsetInCU: 0x57AF, offset: 0x3731A, size: 0x8, addend: 0x0, symName: '__ZZN2bq18appender_file_base21clear_all_limit_filesEvENK3$_0cvPFiPKvS3_EEv', symObjAddr: 0x3628, symBinAddr: 0x298C8, symSize: 0x18 }
  - { offsetInCU: 0x57DA, offset: 0x37345, size: 0x8, addend: 0x0, symName: __ZN2bq5arrayINS_5tupleIJyNS_11string_baseIcEEyEEELm0EE5beginEv, symObjAddr: 0x3640, symBinAddr: 0x298E0, symSize: 0x34 }
  - { offsetInCU: 0x5801, offset: 0x3736C, size: 0x8, addend: 0x0, symName: __ZN2bq5arrayINS_5tupleIJyNS_11string_baseIcEEyEEELm0EE3endEv, symObjAddr: 0x3674, symBinAddr: 0x29914, symSize: 0x44 }
  - { offsetInCU: 0x5828, offset: 0x37393, size: 0x8, addend: 0x0, symName: __ZNK2bq14array_iteratorINS_5tupleIJyNS_11string_baseIcEEyEEENS_5arrayIS4_Lm0EEEEdeEv, symObjAddr: 0x3758, symBinAddr: 0x299F8, symSize: 0x18 }
  - { offsetInCU: 0x584E, offset: 0x373B9, size: 0x8, addend: 0x0, symName: __ZN2bq14array_iteratorINS_5tupleIJyNS_11string_baseIcEEyEEENS_5arrayIS4_Lm0EEEEppEv, symObjAddr: 0x37C0, symBinAddr: 0x29A60, symSize: 0x20 }
  - { offsetInCU: 0x5874, offset: 0x373DF, size: 0x8, addend: 0x0, symName: __ZN2bq5arrayINS_5tupleIJyNS_11string_baseIcEEyEEELm0EED1Ev, symObjAddr: 0x37E0, symBinAddr: 0x29A80, symSize: 0x2C }
  - { offsetInCU: 0x589E, offset: 0x37409, size: 0x8, addend: 0x0, symName: __ZNK2bq18appender_file_base18parse_file_context21log_parse_fail_reasonEPKc, symObjAddr: 0x380C, symBinAddr: 0x29AAC, symSize: 0x58 }
  - { offsetInCU: 0x58D5, offset: 0x37440, size: 0x8, addend: 0x0, symName: __ZN2bq18appender_file_base18parse_file_contextC2ERKNS_11string_baseIcEE, symObjAddr: 0x3ADC, symBinAddr: 0x29B04, symSize: 0x38 }
  - { offsetInCU: 0x590A, offset: 0x37475, size: 0x8, addend: 0x0, symName: __ZN2bq18appender_file_base18parse_file_contextD2Ev, symObjAddr: 0x466C, symBinAddr: 0x29B3C, symSize: 0x2C }
  - { offsetInCU: 0x5935, offset: 0x374A0, size: 0x8, addend: 0x0, symName: __ZN2bq5tupleIJyNS_11string_baseIcEEyEED2Ev, symObjAddr: 0x4698, symBinAddr: 0x29B68, symSize: 0x30 }
  - { offsetInCU: 0x5960, offset: 0x374CB, size: 0x8, addend: 0x0, symName: __ZN2bq5tupleIJNS_11string_baseIcEEyEED2Ev, symObjAddr: 0x46C8, symBinAddr: 0x29B98, symSize: 0x2C }
  - { offsetInCU: 0x598B, offset: 0x374F6, size: 0x8, addend: 0x0, symName: '__ZZN2bq18appender_file_base21clear_all_limit_filesEvEN3$_08__invokeEPKvS3_', symObjAddr: 0x474C, symBinAddr: 0x29BC4, symSize: 0x30 }
  - { offsetInCU: 0x59C1, offset: 0x3752C, size: 0x8, addend: 0x0, symName: '__ZZN2bq18appender_file_base21clear_all_limit_filesEvENK3$_0clEPKvS3_', symObjAddr: 0x477C, symBinAddr: 0x29BF4, symSize: 0xBC }
  - { offsetInCU: 0x5A24, offset: 0x3758F, size: 0x8, addend: 0x0, symName: __ZNK2bq26__tuple_element_value_implILm2EyLb0EE3getEv, symObjAddr: 0x485C, symBinAddr: 0x29CD4, symSize: 0x14 }
  - { offsetInCU: 0x5A48, offset: 0x375B3, size: 0x8, addend: 0x0, symName: __ZN2bq26__tuple_element_value_implILm0EyLb0EE3getEv, symObjAddr: 0x4884, symBinAddr: 0x29CE8, symSize: 0x14 }
  - { offsetInCU: 0x5A6C, offset: 0x375D7, size: 0x8, addend: 0x0, symName: __ZN2bq5arrayIhLm0EED2Ev, symObjAddr: 0x4C4C, symBinAddr: 0x29CFC, symSize: 0x2C }
  - { offsetInCU: 0x5A96, offset: 0x37601, size: 0x8, addend: 0x0, symName: __ZN2bq5arrayIhLm0EE5resetIhEENS_9enable_ifIXsr2bq6is_podIT_EE5valueEvE4typeEv, symObjAddr: 0x4C78, symBinAddr: 0x29D28, symSize: 0x5C }
  - { offsetInCU: 0x5AD0, offset: 0x3763B, size: 0x8, addend: 0x0, symName: __ZN2bq14array_iteratorIhNS_5arrayIhLm0EEEEC1IhEEPT_PKS2_, symObjAddr: 0x4CD4, symBinAddr: 0x29D84, symSize: 0x3C }
  - { offsetInCU: 0x5B1F, offset: 0x3768A, size: 0x8, addend: 0x0, symName: __ZN2bq14array_iteratorIhNS_5arrayIhLm0EEEEC2IhEEPT_PKS2_, symObjAddr: 0x4D10, symBinAddr: 0x29DC0, symSize: 0x70 }
  - { offsetInCU: 0x5B6E, offset: 0x376D9, size: 0x8, addend: 0x0, symName: __ZN2bq14array_iteratorIhNS_5arrayIhLm0EEEEpLEi, symObjAddr: 0x4D80, symBinAddr: 0x29E30, symSize: 0x28 }
  - { offsetInCU: 0x5BA2, offset: 0x3770D, size: 0x8, addend: 0x0, symName: __ZN2bq5arrayIhLm0EE12set_capacityEmb, symObjAddr: 0x4DE8, symBinAddr: 0x29E58, symSize: 0x224 }
  - { offsetInCU: 0x5C11, offset: 0x3777C, size: 0x8, addend: 0x0, symName: __ZNK2bq14array_iteratorIhNS_5arrayIhLm0EEEEptEv, symObjAddr: 0x5388, symBinAddr: 0x2A2D0, symSize: 0x18 }
  - { offsetInCU: 0x5C37, offset: 0x377A2, size: 0x8, addend: 0x0, symName: __ZN2bq5arrayINS_5tupleIJyNS_11string_baseIcEEyEEELm0EEC2Ev, symObjAddr: 0x5630, symBinAddr: 0x2A2E8, symSize: 0x20 }
  - { offsetInCU: 0x5C61, offset: 0x377CC, size: 0x8, addend: 0x0, symName: __ZN2bq5arrayINS_5tupleIJyNS_11string_baseIcEEyEEELm0EED2Ev, symObjAddr: 0x5650, symBinAddr: 0x2A308, symSize: 0x2C }
  - { offsetInCU: 0x5C8B, offset: 0x377F6, size: 0x8, addend: 0x0, symName: __ZN2bq5arrayINS_5tupleIJyNS_11string_baseIcEEyEEELm0EE5resetIS4_EENS_9enable_ifIXntsr2bq6is_podIT_EE5valueEvE4typeEv, symObjAddr: 0x567C, symBinAddr: 0x2A334, symSize: 0x6C }
  - { offsetInCU: 0x5CC1, offset: 0x3782C, size: 0x8, addend: 0x0, symName: __ZN2bq23object_array_destructorINS_5tupleIJyNS_11string_baseIcEEyEEEE8destructEPS4_m, symObjAddr: 0x56E8, symBinAddr: 0x2A3A0, symSize: 0x2C }
  - { offsetInCU: 0x5CF1, offset: 0x3785C, size: 0x8, addend: 0x0, symName: __ZN2bq23object_array_destructorINS_5tupleIJyNS_11string_baseIcEEyEEEE15destructor_implIS4_NS5_27non_trivial_destructor_typeEE8destructEPS4_m, symObjAddr: 0x5714, symBinAddr: 0x2A3CC, symSize: 0x84 }
  - { offsetInCU: 0x5D3D, offset: 0x378A8, size: 0x8, addend: 0x0, symName: __ZN2bq17object_destructorINS_5tupleIJyNS_11string_baseIcEEyEEEE8destructEPS4_, symObjAddr: 0x5798, symBinAddr: 0x2A450, symSize: 0x24 }
  - { offsetInCU: 0x5D5F, offset: 0x378CA, size: 0x8, addend: 0x0, symName: __ZN2bq17object_destructorINS_5tupleIJyNS_11string_baseIcEEyEEEE15destructor_implIS4_NS5_27non_trivial_destructor_typeEE8destructEPS4_, symObjAddr: 0x57BC, symBinAddr: 0x2A474, symSize: 0x3C }
  - { offsetInCU: 0x5D86, offset: 0x378F1, size: 0x8, addend: 0x0, symName: __ZN2bq5tupleIJyNS_11string_baseIcEEyEEC1IRyJRS2_yEEEOT_DpOT0_, symObjAddr: 0x5834, symBinAddr: 0x2A4D8, symSize: 0x44 }
  - { offsetInCU: 0x5DF4, offset: 0x3795F, size: 0x8, addend: 0x0, symName: __ZN2bq5tupleIJyNS_11string_baseIcEEyEEC2IRyJRS2_yEEEOT_DpOT0_, symObjAddr: 0x5878, symBinAddr: 0x2A51C, symSize: 0x70 }
  - { offsetInCU: 0x5E62, offset: 0x379CD, size: 0x8, addend: 0x0, symName: __ZN2bq21__tuple_element_valueILm2EyEC2IRyEEOT_, symObjAddr: 0x58E8, symBinAddr: 0x2A58C, symSize: 0x40 }
  - { offsetInCU: 0x5EA2, offset: 0x37A0D, size: 0x8, addend: 0x0, symName: __ZN2bq5tupleIJNS_11string_baseIcEEyEEC2IRS2_JyEEEOT_DpOT0_, symObjAddr: 0x5928, symBinAddr: 0x2A5CC, symSize: 0x5C }
  - { offsetInCU: 0x5EFC, offset: 0x37A67, size: 0x8, addend: 0x0, symName: __ZN2bq26__tuple_element_value_implILm2EyLb0EEC2IRyEEOT_, symObjAddr: 0x5984, symBinAddr: 0x2A628, symSize: 0x40 }
  - { offsetInCU: 0x5F3C, offset: 0x37AA7, size: 0x8, addend: 0x0, symName: __ZN2bq5tupleIJyEEC2IyJEEEOT_DpOT0_, symObjAddr: 0x5A04, symBinAddr: 0x2A668, symSize: 0x40 }
  - { offsetInCU: 0x5F82, offset: 0x37AED, size: 0x8, addend: 0x0, symName: __ZN2bq21__tuple_element_valueILm0EyEC2IyEEOT_, symObjAddr: 0x5A84, symBinAddr: 0x2A6A8, symSize: 0x40 }
  - { offsetInCU: 0x5FC2, offset: 0x37B2D, size: 0x8, addend: 0x0, symName: __ZN2bq26__tuple_element_value_implILm0EyLb0EEC2IyEEOT_, symObjAddr: 0x5AC4, symBinAddr: 0x2A6E8, symSize: 0x40 }
  - { offsetInCU: 0x6001, offset: 0x37B6C, size: 0x8, addend: 0x0, symName: __ZN2bq5arrayINS_5tupleIJyNS_11string_baseIcEEyEEELm0EE6insertIJS4_EEEvNS_14array_iteratorIS4_S5_EEDpOT_, symObjAddr: 0x5B04, symBinAddr: 0x2A728, symSize: 0x288 }
  - { offsetInCU: 0x608F, offset: 0x37BFA, size: 0x8, addend: 0x0, symName: __ZN2bq5arrayINS_5tupleIJyNS_11string_baseIcEEyEEELm0EE12set_capacityEmb, symObjAddr: 0x5F80, symBinAddr: 0x2ABA4, symSize: 0x230 }
  - { offsetInCU: 0x60FE, offset: 0x37C69, size: 0x8, addend: 0x0, symName: __ZN2bq14array_iteratorINS_5tupleIJyNS_11string_baseIcEEyEEENS_5arrayIS4_Lm0EEEEplEm, symObjAddr: 0x61B0, symBinAddr: 0x2ADD4, symSize: 0x44 }
  - { offsetInCU: 0x6140, offset: 0x37CAB, size: 0x8, addend: 0x0, symName: __ZNK2bq14array_iteratorINS_5tupleIJyNS_11string_baseIcEEyEEENS_5arrayIS4_Lm0EEEEcvPS4_Ev, symObjAddr: 0x61F4, symBinAddr: 0x2AE18, symSize: 0x18 }
  - { offsetInCU: 0x6166, offset: 0x37CD1, size: 0x8, addend: 0x0, symName: __ZN2bq5arrayINS_5tupleIJyNS_11string_baseIcEEyEEELm0EE8destructENS_14array_iteratorIS4_S5_EE, symObjAddr: 0x634C, symBinAddr: 0x2AF70, symSize: 0x34 }
  - { offsetInCU: 0x619B, offset: 0x37D06, size: 0x8, addend: 0x0, symName: __ZN2bq5arrayINS_5tupleIJyNS_11string_baseIcEEyEEELm0EE9constructIJS4_EEEvNS_14array_iteratorIS4_S5_EEDpOT_, symObjAddr: 0x6380, symBinAddr: 0x2AFA4, symSize: 0x74 }
  - { offsetInCU: 0x61F9, offset: 0x37D64, size: 0x8, addend: 0x0, symName: __ZN2bq5tupleIJyNS_11string_baseIcEEyEEC1EOS3_, symObjAddr: 0x64F0, symBinAddr: 0x2B0F8, symSize: 0x34 }
  - { offsetInCU: 0x622D, offset: 0x37D98, size: 0x8, addend: 0x0, symName: __ZN2bq5tupleIJyNS_11string_baseIcEEyEEC2EOS3_, symObjAddr: 0x6524, symBinAddr: 0x2B12C, symSize: 0x48 }
  - { offsetInCU: 0x6266, offset: 0x37DD1, size: 0x8, addend: 0x0, symName: __ZN2bq5tupleIJNS_11string_baseIcEEyEEC2EOS3_, symObjAddr: 0x656C, symBinAddr: 0x2B174, symSize: 0x40 }
  - { offsetInCU: 0x6299, offset: 0x37E04, size: 0x8, addend: 0x0, symName: __ZN2bq14array_iteratorINS_5tupleIJyNS_11string_baseIcEEyEEENS_5arrayIS4_Lm0EEEEpLEi, symObjAddr: 0x6614, symBinAddr: 0x2B1B4, symSize: 0x30 }
  - { offsetInCU: 0x62D2, offset: 0x37E3D, size: 0x8, addend: 0x0, symName: __ZN2bq5tupleIJyNS_11string_baseIcEEyEEaSEOS3_, symObjAddr: 0x6644, symBinAddr: 0x2B1E4, symSize: 0x48 }
  - { offsetInCU: 0x6307, offset: 0x37E72, size: 0x8, addend: 0x0, symName: __ZN2bq5tupleIJNS_11string_baseIcEEyEEaSEOS3_, symObjAddr: 0x668C, symBinAddr: 0x2B22C, symSize: 0x40 }
  - { offsetInCU: 0x6337, offset: 0x37EA2, size: 0x8, addend: 0x0, symName: __ZNK2bq14array_iteratorINS_5tupleIJyNS_11string_baseIcEEyEEENS_5arrayIS4_Lm0EEEEptEv, symObjAddr: 0x6734, symBinAddr: 0x2B26C, symSize: 0x18 }
  - { offsetInCU: 0x6362, offset: 0x37ECD, size: 0x8, addend: 0x0, symName: __ZN2bq14array_iteratorINS_5tupleIJyNS_11string_baseIcEEyEEENS_5arrayIS4_Lm0EEEEC1IS4_EEPT_PKS6_, symObjAddr: 0x674C, symBinAddr: 0x2B284, symSize: 0x3C }
  - { offsetInCU: 0x63B1, offset: 0x37F1C, size: 0x8, addend: 0x0, symName: __ZN2bq14array_iteratorINS_5tupleIJyNS_11string_baseIcEEyEEENS_5arrayIS4_Lm0EEEEC2IS4_EEPT_PKS6_, symObjAddr: 0x6788, symBinAddr: 0x2B2C0, symSize: 0x70 }
  - { offsetInCU: 0x26, offset: 0x38047, size: 0x8, addend: 0x0, symName: __ZN2bq20appender_file_binary20parse_exist_log_fileERNS_18appender_file_base18parse_file_contextE, symObjAddr: 0x0, symBinAddr: 0x2B330, symSize: 0x44C }
  - { offsetInCU: 0x32FE, offset: 0x3B31F, size: 0x8, addend: 0x0, symName: __ZN2bq20appender_file_binary20parse_exist_log_fileERNS_18appender_file_base18parse_file_contextE, symObjAddr: 0x0, symBinAddr: 0x2B330, symSize: 0x44C }
  - { offsetInCU: 0x3465, offset: 0x3B486, size: 0x8, addend: 0x0, symName: __ZN2bq20appender_file_binary12on_file_openEb, symObjAddr: 0x550, symBinAddr: 0x2B77C, symSize: 0x54 }
  - { offsetInCU: 0x3499, offset: 0x3B4BA, size: 0x8, addend: 0x0, symName: __ZN2bq20appender_file_binary17write_file_headerEv, symObjAddr: 0x5A4, symBinAddr: 0x2B7D0, symSize: 0x19C }
  - { offsetInCU: 0x3522, offset: 0x3B543, size: 0x8, addend: 0x0, symName: __ZNK2bq18appender_file_base23write_with_cache_handle4dataEv, symObjAddr: 0x740, symBinAddr: 0x2B96C, symSize: 0x18 }
  - { offsetInCU: 0x3546, offset: 0x3B567, size: 0x8, addend: 0x0, symName: __ZNK2bq18appender_file_base23write_with_cache_handle13allcoated_lenEv, symObjAddr: 0x758, symBinAddr: 0x2B984, symSize: 0x18 }
  - { offsetInCU: 0x356A, offset: 0x3B58B, size: 0x8, addend: 0x0, symName: __ZN2bq20appender_file_binaryD1Ev, symObjAddr: 0x770, symBinAddr: 0x2B99C, symSize: 0x14 }
  - { offsetInCU: 0x3594, offset: 0x3B5B5, size: 0x8, addend: 0x0, symName: __ZN2bq20appender_file_binaryD0Ev, symObjAddr: 0x784, symBinAddr: 0x2B9B0, symSize: 0xC }
  - { offsetInCU: 0x58, offset: 0x3B641, size: 0x8, addend: 0x0, symName: __ZN2bqL28log_file_ext_name_compressedE, symObjAddr: 0x49EE0, symBinAddr: 0x68BB8, symSize: 0x0 }
  - { offsetInCU: 0x44D1, offset: 0x3FABA, size: 0x8, addend: 0x0, symName: __ZN2bq3getILm0EJbNS_24appender_file_compressed9item_typeENS_18appender_file_base22read_with_cache_handleEEEERNS_13tuple_elementIXT_ENS_5tupleIJDpT0_EEEE4typeERS9_, symObjAddr: 0x1710, symBinAddr: 0x2D038, symSize: 0x24 }
  - { offsetInCU: 0x451E, offset: 0x3FB07, size: 0x8, addend: 0x0, symName: __ZN2bq3getILm1EJbNS_24appender_file_compressed9item_typeENS_18appender_file_base22read_with_cache_handleEEEERNS_13tuple_elementIXT_ENS_5tupleIJDpT0_EEEE4typeERS9_, symObjAddr: 0x1734, symBinAddr: 0x2D05C, symSize: 0x28 }
  - { offsetInCU: 0x456B, offset: 0x3FB54, size: 0x8, addend: 0x0, symName: __ZN2bq3getILm2EJbNS_24appender_file_compressed9item_typeENS_18appender_file_base22read_with_cache_handleEEEERNS_13tuple_elementIXT_ENS_5tupleIJDpT0_EEEE4typeERS9_, symObjAddr: 0x175C, symBinAddr: 0x2D084, symSize: 0x28 }
  - { offsetInCU: 0x45B8, offset: 0x3FBA1, size: 0x8, addend: 0x0, symName: __ZN2bq10make_tupleIJbNS_24appender_file_compressed9item_typeERNS_18appender_file_base22read_with_cache_handleEEEENS_5tupleIJDpNS_5decayIT_E4typeEEEEDpOS8_, symObjAddr: 0x4E58, symBinAddr: 0x30780, symSize: 0x5C }
  - { offsetInCU: 0x4619, offset: 0x3FC02, size: 0x8, addend: 0x0, symName: __ZN2bq10make_tupleIJbRNS_24appender_file_compressed9item_typeERNS_18appender_file_base22read_with_cache_handleEEEENS_5tupleIJDpNS_5decayIT_E4typeEEEEDpOS9_, symObjAddr: 0x4EB4, symBinAddr: 0x307DC, symSize: 0x5C }
  - { offsetInCU: 0x467A, offset: 0x3FC63, size: 0x8, addend: 0x0, symName: __ZN2bq41calculate_hash_64_for_compressed_appenderILb0EEEyPKvm, symObjAddr: 0x4F10, symBinAddr: 0x30838, symSize: 0x1B4 }
  - { offsetInCU: 0x4731, offset: 0x3FD1A, size: 0x8, addend: 0x0, symName: __ZN2bq7align_4Em, symObjAddr: 0xF5B4, symBinAddr: 0x3AD9C, symSize: 0x4C }
  - { offsetInCU: 0x4809, offset: 0x3FDF2, size: 0x8, addend: 0x0, symName: __ZN2bq7forwardIbEEOT_RNS_16remove_referenceIS1_E4typeE, symObjAddr: 0x10FC4, symBinAddr: 0x3B8A8, symSize: 0x14 }
  - { offsetInCU: 0x483E, offset: 0x3FE27, size: 0x8, addend: 0x0, symName: __ZN2bq7forwardINS_24appender_file_compressed9item_typeEEEOT_RNS_16remove_referenceIS3_E4typeE, symObjAddr: 0x10FD8, symBinAddr: 0x3B8BC, symSize: 0x14 }
  - { offsetInCU: 0x4873, offset: 0x3FE5C, size: 0x8, addend: 0x0, symName: __ZN2bq7forwardIRNS_18appender_file_base22read_with_cache_handleEEEOT_RNS_16remove_referenceIS4_E4typeE, symObjAddr: 0x10FEC, symBinAddr: 0x3B8D0, symSize: 0x14 }
  - { offsetInCU: 0x48A8, offset: 0x3FE91, size: 0x8, addend: 0x0, symName: __ZN2bq7forwardIRNS_24appender_file_compressed9item_typeEEEOT_RNS_16remove_referenceIS4_E4typeE, symObjAddr: 0x112D4, symBinAddr: 0x3BBB8, symSize: 0x14 }
  - { offsetInCU: 0x48DD, offset: 0x3FEC6, size: 0x8, addend: 0x0, symName: __ZN2bq17is_addr_8_alignedEPKv, symObjAddr: 0x11478, symBinAddr: 0x3BD5C, symSize: 0x28 }
  - { offsetInCU: 0x4917, offset: 0x3FF00, size: 0x8, addend: 0x0, symName: __ZN2bq41calculate_hash_64_for_compressed_appenderILb1EEEyPKvm, symObjAddr: 0x114A0, symBinAddr: 0x3BD84, symSize: 0x1D8 }
  - { offsetInCU: 0x4A69, offset: 0x40052, size: 0x8, addend: 0x0, symName: __ZN2bq22__inner_hash_calculateIyyEENS_9enable_ifIXntoosr2bq7is_sameIT_fEE5valuesr2bq7is_sameIS2_dEE5valueET0_E4typeERKS2_, symObjAddr: 0x11BD0, symBinAddr: 0x3C104, symSize: 0x24 }
  - { offsetInCU: 0x4ADA, offset: 0x400C3, size: 0x8, addend: 0x0, symName: __ZN2bq4moveIRyEEONS_16remove_referenceIT_E4typeEOS3_, symObjAddr: 0x11D44, symBinAddr: 0x3C248, symSize: 0x14 }
  - { offsetInCU: 0x4B0F, offset: 0x400F8, size: 0x8, addend: 0x0, symName: __ZN2bq4moveIRjEEONS_16remove_referenceIT_E4typeEOS3_, symObjAddr: 0x11D58, symBinAddr: 0x3C25C, symSize: 0x14 }
  - { offsetInCU: 0x4B44, offset: 0x4012D, size: 0x8, addend: 0x0, symName: __ZN2bq7forwardIRKyEEOT_RNS_16remove_referenceIS3_E4typeE, symObjAddr: 0x11D6C, symBinAddr: 0x3C270, symSize: 0x14 }
  - { offsetInCU: 0x57F8, offset: 0x40DE1, size: 0x8, addend: 0x0, symName: __ZN2bq24appender_file_compressed9init_implERKNS_14property_valueE, symObjAddr: 0x0, symBinAddr: 0x2B9BC, symSize: 0x74 }
  - { offsetInCU: 0x5876, offset: 0x40E5F, size: 0x8, addend: 0x0, symName: __ZN2bq24appender_file_compressed12on_file_openEb, symObjAddr: 0x74, symBinAddr: 0x2BA30, symSize: 0x54 }
  - { offsetInCU: 0x5A1E, offset: 0x41007, size: 0x8, addend: 0x0, symName: __ZN2bq24appender_file_compressed5resetEv, symObjAddr: 0xC8, symBinAddr: 0x2BA84, symSize: 0x918 }
  - { offsetInCU: 0x5F26, offset: 0x4150F, size: 0x8, addend: 0x0, symName: __ZN2bq24appender_file_compressed17get_file_ext_nameEv, symObjAddr: 0xA40, symBinAddr: 0x2C39C, symSize: 0x3C }
  - { offsetInCU: 0x5F4C, offset: 0x41535, size: 0x8, addend: 0x0, symName: __ZNK2bq24appender_file_compressed25get_binary_format_versionEv, symObjAddr: 0xAB0, symBinAddr: 0x2C3D8, symSize: 0x14 }
  - { offsetInCU: 0x5FBB, offset: 0x415A4, size: 0x8, addend: 0x0, symName: __ZN2bq24appender_file_compressed20parse_exist_log_fileERNS_18appender_file_base18parse_file_contextE, symObjAddr: 0xAC4, symBinAddr: 0x2C3EC, symSize: 0x338 }
  - { offsetInCU: 0x60DF, offset: 0x416C8, size: 0x8, addend: 0x0, symName: '__ZN2bq32_st_appender_file_exist_callbackIZNS_24appender_file_compressed20parse_exist_log_fileERNS_18appender_file_base18parse_file_contextEE3$_0EC1ERKS5_', symObjAddr: 0xDFC, symBinAddr: 0x2C724, symSize: 0x34 }
  - { offsetInCU: 0x6196, offset: 0x4177F, size: 0x8, addend: 0x0, symName: __ZN2bq24appender_file_compressed14read_item_dataERNS_18appender_file_base18parse_file_contextE, symObjAddr: 0xE30, symBinAddr: 0x2C758, symSize: 0x8BC }
  - { offsetInCU: 0x676F, offset: 0x41D58, size: 0x8, addend: 0x0, symName: __ZN2bq24appender_file_compressed22parse_formate_templateERNS_18appender_file_base18parse_file_contextERKNS1_22read_with_cache_handleE, symObjAddr: 0x1784, symBinAddr: 0x2D0AC, symSize: 0x2F70 }
  - { offsetInCU: 0x7C63, offset: 0x4324C, size: 0x8, addend: 0x0, symName: __ZN2bq24appender_file_compressed26parse_thread_info_templateERNS_18appender_file_base18parse_file_contextERKNS1_22read_with_cache_handleE, symObjAddr: 0x4718, symBinAddr: 0x30040, symSize: 0x84 }
  - { offsetInCU: 0x7D20, offset: 0x43309, size: 0x8, addend: 0x0, symName: __ZN2bq24appender_file_compressed15parse_log_entryERNS_18appender_file_base18parse_file_contextERKNS1_22read_with_cache_handleE, symObjAddr: 0x479C, symBinAddr: 0x300C4, symSize: 0x66C }
  - { offsetInCU: 0x7E14, offset: 0x433FD, size: 0x8, addend: 0x0, symName: '__ZN2bq32_st_appender_file_exist_callbackIZNS_24appender_file_compressed20parse_exist_log_fileERNS_18appender_file_base18parse_file_contextEE3$_0ED1Ev', symObjAddr: 0x4E2C, symBinAddr: 0x30754, symSize: 0x2C }
  - { offsetInCU: 0x7E3C, offset: 0x43425, size: 0x8, addend: 0x0, symName: __ZN2bq24appender_file_compressed24get_format_template_hashENS_9log_levelEjy, symObjAddr: 0x50C4, symBinAddr: 0x309EC, symSize: 0x70 }
  - { offsetInCU: 0x7EAD, offset: 0x43496, size: 0x8, addend: 0x0, symName: __ZN2bq5arrayIDsLm1EEixEm, symObjAddr: 0x5210, symBinAddr: 0x30A5C, symSize: 0x74 }
  - { offsetInCU: 0x8099, offset: 0x43682, size: 0x8, addend: 0x0, symName: __ZN2bq24appender_file_compressed8log_implERKNS_16log_entry_handleE, symObjAddr: 0x52D0, symBinAddr: 0x30AD0, symSize: 0xA020 }
  - { offsetInCU: 0xA4E1, offset: 0x45ACA, size: 0x8, addend: 0x0, symName: __ZN2bq18appender_file_base23write_with_cache_handle14reset_used_lenEm, symObjAddr: 0xF594, symBinAddr: 0x3AD7C, symSize: 0x20 }
  - { offsetInCU: 0xA512, offset: 0x45AFB, size: 0x8, addend: 0x0, symName: __ZN2bq24appender_file_compressedD1Ev, symObjAddr: 0xF600, symBinAddr: 0x3ADE8, symSize: 0x2C }
  - { offsetInCU: 0xA53C, offset: 0x45B25, size: 0x8, addend: 0x0, symName: __ZN2bq24appender_file_compressedD0Ev, symObjAddr: 0xF62C, symBinAddr: 0x3AE14, symSize: 0x30 }
  - { offsetInCU: 0xA567, offset: 0x45B50, size: 0x8, addend: 0x0, symName: __ZNK2bq24appender_file_compressed19get_appender_formatEv, symObjAddr: 0xF65C, symBinAddr: 0x3AE44, symSize: 0x14 }
  - { offsetInCU: 0xA58B, offset: 0x45B74, size: 0x8, addend: 0x0, symName: __ZN2bq26__tuple_element_value_implILm2EbLb0EE3getEv, symObjAddr: 0xF724, symBinAddr: 0x3AE58, symSize: 0x14 }
  - { offsetInCU: 0xA5AF, offset: 0x45B98, size: 0x8, addend: 0x0, symName: __ZN2bq26__tuple_element_value_implILm1ENS_24appender_file_compressed9item_typeELb0EE3getEv, symObjAddr: 0xF738, symBinAddr: 0x3AE6C, symSize: 0x14 }
  - { offsetInCU: 0xA5D3, offset: 0x45BBC, size: 0x8, addend: 0x0, symName: __ZN2bq26__tuple_element_value_implILm0ENS_18appender_file_base22read_with_cache_handleELb0EE3getEv, symObjAddr: 0xF74C, symBinAddr: 0x3AE80, symSize: 0x14 }
  - { offsetInCU: 0xA654, offset: 0x45C3D, size: 0x8, addend: 0x0, symName: __ZN2bq24appender_file_compressedD2Ev, symObjAddr: 0xF760, symBinAddr: 0x3AE94, symSize: 0x7A0 }
  - { offsetInCU: 0xAAEC, offset: 0x460D5, size: 0x8, addend: 0x0, symName: __ZN2bq20appender_file_binaryD2Ev, symObjAddr: 0xFF2C, symBinAddr: 0x3B634, symSize: 0x2C }
  - { offsetInCU: 0xAB17, offset: 0x46100, size: 0x8, addend: 0x0, symName: __ZN2bq15hash_map_inlineIyjE22value_node_buffer_headINS1_10value_nodeEEixEj, symObjAddr: 0x1000C, symBinAddr: 0x3B660, symSize: 0x74 }
  - { offsetInCU: 0xAB49, offset: 0x46132, size: 0x8, addend: 0x0, symName: __ZN2bq24hash_map_iterator_inlineIyjLb0EEC1EPNS_15hash_map_inlineIyjEEjj, symObjAddr: 0x10080, symBinAddr: 0x3B6D4, symSize: 0x44 }
  - { offsetInCU: 0xAB9B, offset: 0x46184, size: 0x8, addend: 0x0, symName: __ZN2bq24hash_map_iterator_inlineIyjLb0EEC2EPNS_15hash_map_inlineIyjEEjj, symObjAddr: 0x100C4, symBinAddr: 0x3B718, symSize: 0x38 }
  - { offsetInCU: 0xABED, offset: 0x461D6, size: 0x8, addend: 0x0, symName: __ZN2bq17object_destructorIyE8destructEPy, symObjAddr: 0x100FC, symBinAddr: 0x3B750, symSize: 0x24 }
  - { offsetInCU: 0xAC0F, offset: 0x461F8, size: 0x8, addend: 0x0, symName: __ZN2bq17object_destructorIyE15destructor_implIyNS1_23trivial_destructor_typeEE8destructEPy, symObjAddr: 0x10120, symBinAddr: 0x3B774, symSize: 0x10 }
  - { offsetInCU: 0xAC31, offset: 0x4621A, size: 0x8, addend: 0x0, symName: __ZN2bq17object_destructorIjE8destructEPj, symObjAddr: 0x10130, symBinAddr: 0x3B784, symSize: 0x24 }
  - { offsetInCU: 0xAC53, offset: 0x4623C, size: 0x8, addend: 0x0, symName: __ZN2bq17object_destructorIjE15destructor_implIjNS1_23trivial_destructor_typeEE8destructEPj, symObjAddr: 0x10154, symBinAddr: 0x3B7A8, symSize: 0x10 }
  - { offsetInCU: 0xAC75, offset: 0x4625E, size: 0x8, addend: 0x0, symName: __ZNK2bq15hash_map_inlineIyjE22value_node_buffer_headINS1_10value_nodeEEixEj, symObjAddr: 0x10164, symBinAddr: 0x3B7B8, symSize: 0x74 }
  - { offsetInCU: 0xACA7, offset: 0x46290, size: 0x8, addend: 0x0, symName: '__ZN2bq32_st_appender_file_exist_callbackIZNS_24appender_file_compressed20parse_exist_log_fileERNS_18appender_file_base18parse_file_contextEE3$_0EC2ERKS5_', symObjAddr: 0x10F48, symBinAddr: 0x3B82C, symSize: 0x24 }
  - { offsetInCU: 0xACDD, offset: 0x462C6, size: 0x8, addend: 0x0, symName: '__ZN2bq32_st_appender_file_exist_callbackIZNS_24appender_file_compressed20parse_exist_log_fileERNS_18appender_file_base18parse_file_contextEE3$_0ED2Ev', symObjAddr: 0x10F6C, symBinAddr: 0x3B850, symSize: 0x2C }
  - { offsetInCU: 0xAD0A, offset: 0x462F3, size: 0x8, addend: 0x0, symName: '__ZZN2bq24appender_file_compressed20parse_exist_log_fileERNS_18appender_file_base18parse_file_contextEENK3$_0clEv', symObjAddr: 0x10F98, symBinAddr: 0x3B87C, symSize: 0x2C }
  - { offsetInCU: 0xAD3C, offset: 0x46325, size: 0x8, addend: 0x0, symName: __ZN2bq5tupleIJbNS_24appender_file_compressed9item_typeENS_18appender_file_base22read_with_cache_handleEEEC1IbJS2_RS4_EEEOT_DpOT0_, symObjAddr: 0x11000, symBinAddr: 0x3B8E4, symSize: 0x44 }
  - { offsetInCU: 0xADAA, offset: 0x46393, size: 0x8, addend: 0x0, symName: __ZN2bq5tupleIJbNS_24appender_file_compressed9item_typeENS_18appender_file_base22read_with_cache_handleEEEC2IbJS2_RS4_EEEOT_DpOT0_, symObjAddr: 0x11044, symBinAddr: 0x3B928, symSize: 0x70 }
  - { offsetInCU: 0xAE18, offset: 0x46401, size: 0x8, addend: 0x0, symName: __ZN2bq21__tuple_element_valueILm2EbEC2IbEEOT_, symObjAddr: 0x110B4, symBinAddr: 0x3B998, symSize: 0x40 }
  - { offsetInCU: 0xAE58, offset: 0x46441, size: 0x8, addend: 0x0, symName: __ZN2bq5tupleIJNS_24appender_file_compressed9item_typeENS_18appender_file_base22read_with_cache_handleEEEC2IS2_JRS4_EEEOT_DpOT0_, symObjAddr: 0x110F4, symBinAddr: 0x3B9D8, symSize: 0x5C }
  - { offsetInCU: 0xAEB2, offset: 0x4649B, size: 0x8, addend: 0x0, symName: __ZN2bq26__tuple_element_value_implILm2EbLb0EEC2IbEEOT_, symObjAddr: 0x11150, symBinAddr: 0x3BA34, symSize: 0x44 }
  - { offsetInCU: 0xAEF2, offset: 0x464DB, size: 0x8, addend: 0x0, symName: __ZN2bq21__tuple_element_valueILm1ENS_24appender_file_compressed9item_typeEEC2IS2_EEOT_, symObjAddr: 0x11194, symBinAddr: 0x3BA78, symSize: 0x40 }
  - { offsetInCU: 0xAF32, offset: 0x4651B, size: 0x8, addend: 0x0, symName: __ZN2bq5tupleIJNS_18appender_file_base22read_with_cache_handleEEEC2IRS2_JEEEOT_DpOT0_, symObjAddr: 0x111D4, symBinAddr: 0x3BAB8, symSize: 0x40 }
  - { offsetInCU: 0xAF78, offset: 0x46561, size: 0x8, addend: 0x0, symName: __ZN2bq26__tuple_element_value_implILm1ENS_24appender_file_compressed9item_typeELb0EEC2IS2_EEOT_, symObjAddr: 0x11214, symBinAddr: 0x3BAF8, symSize: 0x40 }
  - { offsetInCU: 0xAFB8, offset: 0x465A1, size: 0x8, addend: 0x0, symName: __ZN2bq21__tuple_element_valueILm0ENS_18appender_file_base22read_with_cache_handleEEC2IRS2_EEOT_, symObjAddr: 0x11254, symBinAddr: 0x3BB38, symSize: 0x40 }
  - { offsetInCU: 0xAFF8, offset: 0x465E1, size: 0x8, addend: 0x0, symName: __ZN2bq26__tuple_element_value_implILm0ENS_18appender_file_base22read_with_cache_handleELb0EEC2IRS2_EEOT_, symObjAddr: 0x11294, symBinAddr: 0x3BB78, symSize: 0x40 }
  - { offsetInCU: 0xB038, offset: 0x46621, size: 0x8, addend: 0x0, symName: __ZN2bq5tupleIJbNS_24appender_file_compressed9item_typeENS_18appender_file_base22read_with_cache_handleEEEC1IbJRS2_RS4_EEEOT_DpOT0_, symObjAddr: 0x112E8, symBinAddr: 0x3BBCC, symSize: 0x44 }
  - { offsetInCU: 0xB0A6, offset: 0x4668F, size: 0x8, addend: 0x0, symName: __ZN2bq5tupleIJbNS_24appender_file_compressed9item_typeENS_18appender_file_base22read_with_cache_handleEEEC2IbJRS2_RS4_EEEOT_DpOT0_, symObjAddr: 0x1132C, symBinAddr: 0x3BC10, symSize: 0x70 }
  - { offsetInCU: 0xB114, offset: 0x466FD, size: 0x8, addend: 0x0, symName: __ZN2bq5tupleIJNS_24appender_file_compressed9item_typeENS_18appender_file_base22read_with_cache_handleEEEC2IRS2_JRS4_EEEOT_DpOT0_, symObjAddr: 0x1139C, symBinAddr: 0x3BC80, symSize: 0x5C }
  - { offsetInCU: 0xB16E, offset: 0x46757, size: 0x8, addend: 0x0, symName: __ZN2bq21__tuple_element_valueILm1ENS_24appender_file_compressed9item_typeEEC2IRS2_EEOT_, symObjAddr: 0x113F8, symBinAddr: 0x3BCDC, symSize: 0x40 }
  - { offsetInCU: 0xB1AE, offset: 0x46797, size: 0x8, addend: 0x0, symName: __ZN2bq26__tuple_element_value_implILm1ENS_24appender_file_compressed9item_typeELb0EEC2IRS2_EEOT_, symObjAddr: 0x11438, symBinAddr: 0x3BD1C, symSize: 0x40 }
  - { offsetInCU: 0xB1EE, offset: 0x467D7, size: 0x8, addend: 0x0, symName: __ZN2bq17data_value_helperIyLb0EE14get_data_valueEPKv, symObjAddr: 0x11678, symBinAddr: 0x3BF5C, symSize: 0x20 }
  - { offsetInCU: 0xB21E, offset: 0x46807, size: 0x8, addend: 0x0, symName: __ZN2bq17data_value_helperIjLb0EE14get_data_valueEPKv, symObjAddr: 0x11698, symBinAddr: 0x3BF7C, symSize: 0x20 }
  - { offsetInCU: 0xB24E, offset: 0x46837, size: 0x8, addend: 0x0, symName: __ZN2bq17data_value_helperIyLb1EE14get_data_valueEPKv, symObjAddr: 0x116B8, symBinAddr: 0x3BF9C, symSize: 0x18 }
  - { offsetInCU: 0xB270, offset: 0x46859, size: 0x8, addend: 0x0, symName: __ZN2bq17data_value_helperIjLb1EE14get_data_valueEPKv, symObjAddr: 0x116D0, symBinAddr: 0x3BFB4, symSize: 0x18 }
  - { offsetInCU: 0xB292, offset: 0x4687B, size: 0x8, addend: 0x0, symName: __ZN2bq24hash_map_iterator_inlineIyjLb1EEC1ILb0EEERKNS0_IyjXT_EEE, symObjAddr: 0x11A14, symBinAddr: 0x3BFCC, symSize: 0x34 }
  - { offsetInCU: 0xB2D2, offset: 0x468BB, size: 0x8, addend: 0x0, symName: __ZNK2bq15hash_map_inlineIyjE22value_node_buffer_headINS1_10value_nodeEE4sizeEv, symObjAddr: 0x11A48, symBinAddr: 0x3C000, symSize: 0x18 }
  - { offsetInCU: 0xB2F6, offset: 0x468DF, size: 0x8, addend: 0x0, symName: __ZN2bq24hash_map_iterator_inlineIyjLb1EEC2ILb0EEERKNS0_IyjXT_EEE, symObjAddr: 0x11A60, symBinAddr: 0x3C018, symSize: 0x3C }
  - { offsetInCU: 0xB336, offset: 0x4691F, size: 0x8, addend: 0x0, symName: __ZN2bq15hash_map_inlineIyjE22value_node_buffer_headIjEixEj, symObjAddr: 0x11A9C, symBinAddr: 0x3C054, symSize: 0x74 }
  - { offsetInCU: 0xB368, offset: 0x46951, size: 0x8, addend: 0x0, symName: __ZNK2bq15hash_map_inlineIyjE22value_node_buffer_headIjE4sizeEv, symObjAddr: 0x11B10, symBinAddr: 0x3C0C8, symSize: 0x18 }
  - { offsetInCU: 0xB38C, offset: 0x46975, size: 0x8, addend: 0x0, symName: __ZN2bq27number_type_hash_calculatorIyE9hash_codeERKy, symObjAddr: 0x11BAC, symBinAddr: 0x3C0E0, symSize: 0x24 }
  - { offsetInCU: 0xB3AE, offset: 0x46997, size: 0x8, addend: 0x0, symName: __ZN2bq28integer_type_hash_calculatorIyE9hash_codeERKy, symObjAddr: 0x11BF4, symBinAddr: 0x3C128, symSize: 0x18 }
  - { offsetInCU: 0xB3D0, offset: 0x469B9, size: 0x8, addend: 0x0, symName: __ZNK2bq15hash_map_inlineIyjE22value_node_buffer_headIjEixEj, symObjAddr: 0x11C0C, symBinAddr: 0x3C140, symSize: 0x74 }
  - { offsetInCU: 0xB402, offset: 0x469EB, size: 0x8, addend: 0x0, symName: __ZN2bq14kv_pair_inlineIjjEC1IRjS3_EEOT_OT0_, symObjAddr: 0x11C80, symBinAddr: 0x3C1B4, symSize: 0x3C }
  - { offsetInCU: 0xB458, offset: 0x46A41, size: 0x8, addend: 0x0, symName: __ZN2bq14kv_pair_inlineIjjEC2IRjS3_EEOT_OT0_, symObjAddr: 0x11CBC, symBinAddr: 0x3C1F0, symSize: 0x58 }
  - { offsetInCU: 0x58, offset: 0x46B98, size: 0x8, addend: 0x0, symName: __ZN2bqL21log_file_ext_name_rawE, symObjAddr: 0x12FB8, symBinAddr: 0x68BD0, symSize: 0x0 }
  - { offsetInCU: 0x2341, offset: 0x48E81, size: 0x8, addend: 0x0, symName: __ZN2bq17appender_file_raw8log_implERKNS_16log_entry_handleE, symObjAddr: 0x0, symBinAddr: 0x3C2E0, symSize: 0xE0 }
  - { offsetInCU: 0x23D9, offset: 0x48F19, size: 0x8, addend: 0x0, symName: __ZN2bq17appender_file_raw17get_file_ext_nameEv, symObjAddr: 0x158, symBinAddr: 0x3C3C0, symSize: 0x3C }
  - { offsetInCU: 0x23FF, offset: 0x48F3F, size: 0x8, addend: 0x0, symName: __ZNK2bq17appender_file_raw25get_binary_format_versionEv, symObjAddr: 0x1C8, symBinAddr: 0x3C3FC, symSize: 0x14 }
  - { offsetInCU: 0x2425, offset: 0x48F65, size: 0x8, addend: 0x0, symName: __ZN2bq17appender_file_rawD1Ev, symObjAddr: 0x1DC, symBinAddr: 0x3C410, symSize: 0x2C }
  - { offsetInCU: 0x244F, offset: 0x48F8F, size: 0x8, addend: 0x0, symName: __ZN2bq17appender_file_rawD0Ev, symObjAddr: 0x208, symBinAddr: 0x3C43C, symSize: 0x30 }
  - { offsetInCU: 0x2479, offset: 0x48FB9, size: 0x8, addend: 0x0, symName: __ZNK2bq17appender_file_raw19get_appender_formatEv, symObjAddr: 0x238, symBinAddr: 0x3C46C, symSize: 0x14 }
  - { offsetInCU: 0x249D, offset: 0x48FDD, size: 0x8, addend: 0x0, symName: __ZN2bq17appender_file_rawD2Ev, symObjAddr: 0x300, symBinAddr: 0x3C480, symSize: 0x2C }
  - { offsetInCU: 0x58, offset: 0x49069, size: 0x8, addend: 0x0, symName: __ZN2bqL22log_file_ext_name_textE, symObjAddr: 0x1C9D8, symBinAddr: 0x68BE8, symSize: 0x0 }
  - { offsetInCU: 0x3295, offset: 0x4C2A6, size: 0x8, addend: 0x0, symName: __ZN2bq18appender_file_text8log_implERKNS_16log_entry_handleE, symObjAddr: 0x0, symBinAddr: 0x3C508, symSize: 0x140 }
  - { offsetInCU: 0x331E, offset: 0x4C32F, size: 0x8, addend: 0x0, symName: __ZN2bq18appender_file_text20parse_exist_log_fileERNS_18appender_file_base18parse_file_contextE, symObjAddr: 0x1C8, symBinAddr: 0x3C648, symSize: 0x1C }
  - { offsetInCU: 0x3352, offset: 0x4C363, size: 0x8, addend: 0x0, symName: __ZN2bq18appender_file_text12on_file_openEb, symObjAddr: 0x1E4, symBinAddr: 0x3C664, symSize: 0x38 }
  - { offsetInCU: 0x3386, offset: 0x4C397, size: 0x8, addend: 0x0, symName: __ZN2bq18appender_file_text17get_file_ext_nameEv, symObjAddr: 0x27C, symBinAddr: 0x3C69C, symSize: 0x3C }
  - { offsetInCU: 0x33AC, offset: 0x4C3BD, size: 0x8, addend: 0x0, symName: __ZN2bq18appender_file_textD1Ev, symObjAddr: 0x2EC, symBinAddr: 0x3C6D8, symSize: 0x2C }
  - { offsetInCU: 0x33D6, offset: 0x4C3E7, size: 0x8, addend: 0x0, symName: __ZN2bq18appender_file_textD0Ev, symObjAddr: 0x318, symBinAddr: 0x3C704, symSize: 0x30 }
  - { offsetInCU: 0x3400, offset: 0x4C411, size: 0x8, addend: 0x0, symName: __ZN2bq18appender_file_textD2Ev, symObjAddr: 0x494, symBinAddr: 0x3C734, symSize: 0x2C }
  - { offsetInCU: 0x26, offset: 0x4C466, size: 0x8, addend: 0x0, symName: __ZN2bq21appender_decoder_base4initERKNS_11file_handleE, symObjAddr: 0x0, symBinAddr: 0x3C7BC, symSize: 0x34C }
  - { offsetInCU: 0x1995, offset: 0x4DDD5, size: 0x8, addend: 0x0, symName: __ZN2bq21appender_decoder_base4initERKNS_11file_handleE, symObjAddr: 0x0, symBinAddr: 0x3C7BC, symSize: 0x34C }
  - { offsetInCU: 0x1AB9, offset: 0x4DEF9, size: 0x8, addend: 0x0, symName: __ZN2bq21appender_decoder_base23seek_read_file_absoluteEm, symObjAddr: 0x34C, symBinAddr: 0x3CB08, symSize: 0x54 }
  - { offsetInCU: 0x1AED, offset: 0x4DF2D, size: 0x8, addend: 0x0, symName: __ZN2bq21appender_decoder_base15read_with_cacheEm, symObjAddr: 0x3A0, symBinAddr: 0x3CB5C, symSize: 0x260 }
  - { offsetInCU: 0x1B78, offset: 0x4DFB8, size: 0x8, addend: 0x0, symName: __ZN2bq21appender_decoder_base6decodeEv, symObjAddr: 0x7FC, symBinAddr: 0x3CDBC, symSize: 0x2C }
  - { offsetInCU: 0x1B9E, offset: 0x4DFDE, size: 0x8, addend: 0x0, symName: __ZN2bq21appender_decoder_base16clear_read_cacheEv, symObjAddr: 0x828, symBinAddr: 0x3CDE8, symSize: 0x5C }
  - { offsetInCU: 0x1BC4, offset: 0x4E004, size: 0x8, addend: 0x0, symName: __ZN2bq21appender_decoder_base21seek_read_file_offsetEi, symObjAddr: 0x884, symBinAddr: 0x3CE44, symSize: 0xC4 }
  - { offsetInCU: 0x1C06, offset: 0x4E046, size: 0x8, addend: 0x0, symName: __ZN2bq21appender_decoder_base29do_decode_by_log_entry_handleERKNS_16log_entry_handleE, symObjAddr: 0xE60, symBinAddr: 0x3CF08, symSize: 0x140 }
  - { offsetInCU: 0x26, offset: 0x4E0B3, size: 0x8, addend: 0x0, symName: __ZN2bq27appender_decoder_compressed12init_privateEv, symObjAddr: 0x0, symBinAddr: 0x3D048, symSize: 0x48 }
  - { offsetInCU: 0x3754, offset: 0x517E1, size: 0x8, addend: 0x0, symName: __ZN2bq3getILm0EJNS_22appender_decode_resultENS_24appender_file_compressed9item_typeENS_21appender_decoder_base22read_with_cache_handleEEEERNS_13tuple_elementIXT_ENS_5tupleIJDpT0_EEEE4typeERSA_, symObjAddr: 0xC4C, symBinAddr: 0x3DC1C, symSize: 0x24 }
  - { offsetInCU: 0x37A1, offset: 0x5182E, size: 0x8, addend: 0x0, symName: __ZN2bq3getILm1EJNS_22appender_decode_resultENS_24appender_file_compressed9item_typeENS_21appender_decoder_base22read_with_cache_handleEEEERNS_13tuple_elementIXT_ENS_5tupleIJDpT0_EEEE4typeERSA_, symObjAddr: 0xC70, symBinAddr: 0x3DC40, symSize: 0x28 }
  - { offsetInCU: 0x37EE, offset: 0x5187B, size: 0x8, addend: 0x0, symName: __ZN2bq3getILm2EJNS_22appender_decode_resultENS_24appender_file_compressed9item_typeENS_21appender_decoder_base22read_with_cache_handleEEEERNS_13tuple_elementIXT_ENS_5tupleIJDpT0_EEEE4typeERSA_, symObjAddr: 0xC98, symBinAddr: 0x3DC68, symSize: 0x28 }
  - { offsetInCU: 0x383B, offset: 0x518C8, size: 0x8, addend: 0x0, symName: __ZN2bq10make_tupleIJNS_22appender_decode_resultENS_24appender_file_compressed9item_typeERNS_21appender_decoder_base22read_with_cache_handleEEEENS_5tupleIJDpNS_5decayIT_E4typeEEEEDpOS9_, symObjAddr: 0x5844, symBinAddr: 0x42814, symSize: 0x5C }
  - { offsetInCU: 0x389C, offset: 0x51929, size: 0x8, addend: 0x0, symName: __ZN2bq10make_tupleIJNS_22appender_decode_resultERNS_24appender_file_compressed9item_typeERNS_21appender_decoder_base22read_with_cache_handleEEEENS_5tupleIJDpNS_5decayIT_E4typeEEEEDpOSA_, symObjAddr: 0x58A0, symBinAddr: 0x42870, symSize: 0x5C }
  - { offsetInCU: 0x38FD, offset: 0x5198A, size: 0x8, addend: 0x0, symName: __ZN2bqeqIyNS_27appender_decoder_compressed28decoder_thread_info_templateELb0ELb0EEEbRKNS_17hash_map_iteratorIT_T0_XT1_EEERKNS3_IS4_S5_XT2_EEE, symObjAddr: 0x5FA0, symBinAddr: 0x42B14, symSize: 0xE4 }
  - { offsetInCU: 0x395D, offset: 0x519EA, size: 0x8, addend: 0x0, symName: __ZN2bqneIyNS_27appender_decoder_compressed28decoder_thread_info_templateELb0ELb0EEEbRKNS_17hash_map_iteratorIT_T0_XT1_EEERKNS3_IS4_S5_XT2_EEE, symObjAddr: 0x6A9C, symBinAddr: 0x43164, symSize: 0x34 }
  - { offsetInCU: 0x3AC9, offset: 0x51B56, size: 0x8, addend: 0x0, symName: __ZN2bqneIyNS_11string_baseIcEELb0ELb0EEEbRKNS_17hash_map_iteratorIT_T0_XT1_EEERKNS3_IS4_S5_XT2_EEE, symObjAddr: 0x74C0, symBinAddr: 0x43954, symSize: 0x34 }
  - { offsetInCU: 0x3B29, offset: 0x51BB6, size: 0x8, addend: 0x0, symName: __ZN2bqeqIyNS_11string_baseIcEELb0ELb0EEEbRKNS_17hash_map_iteratorIT_T0_XT1_EEERKNS3_IS4_S5_XT2_EEE, symObjAddr: 0x76E8, symBinAddr: 0x43B7C, symSize: 0xE4 }
  - { offsetInCU: 0x3B89, offset: 0x51C16, size: 0x8, addend: 0x0, symName: __ZN2bq7forwardINS_22appender_decode_resultEEEOT_RNS_16remove_referenceIS2_E4typeE, symObjAddr: 0x8198, symBinAddr: 0x43DEC, symSize: 0x14 }
  - { offsetInCU: 0x3BBE, offset: 0x51C4B, size: 0x8, addend: 0x0, symName: __ZN2bq7forwardIRNS_21appender_decoder_base22read_with_cache_handleEEEOT_RNS_16remove_referenceIS4_E4typeE, symObjAddr: 0x81C0, symBinAddr: 0x43E00, symSize: 0x14 }
  - { offsetInCU: 0x3BF3, offset: 0x51C80, size: 0x8, addend: 0x0, symName: __ZN2bq7forwardINS_27appender_decoder_compressed20decoder_log_templateEEEOT_RNS_16remove_referenceIS3_E4typeE, symObjAddr: 0x8914, symBinAddr: 0x44440, symSize: 0x14 }
  - { offsetInCU: 0x3C28, offset: 0x51CB5, size: 0x8, addend: 0x0, symName: __ZN2bqgeINS_27appender_decoder_compressed20decoder_log_templateES2_NS_5arrayIS2_Lm0EEES4_EEbRKNS_14array_iteratorIT_T1_EERKNS5_IT0_T2_EE, symObjAddr: 0x8928, symBinAddr: 0x44454, symSize: 0xA0 }
  - { offsetInCU: 0x3C86, offset: 0x51D13, size: 0x8, addend: 0x0, symName: __ZN2bqleINS_27appender_decoder_compressed20decoder_log_templateES2_NS_5arrayIS2_Lm0EEES4_EEbRKNS_14array_iteratorIT_T1_EERKNS5_IT0_T2_EE, symObjAddr: 0x89FC, symBinAddr: 0x44528, symSize: 0xA0 }
  - { offsetInCU: 0x3CE4, offset: 0x51D71, size: 0x8, addend: 0x0, symName: __ZN2bqmiINS_27appender_decoder_compressed20decoder_log_templateES2_NS_5arrayIS2_Lm0EEES4_EENS_14array_iteratorIT_T1_E9diff_typeERKS8_RKNS5_IT0_T2_EE, symObjAddr: 0x8A9C, symBinAddr: 0x445C8, symSize: 0xA0 }
  - { offsetInCU: 0x3D42, offset: 0x51DCF, size: 0x8, addend: 0x0, symName: __ZN2bq19_inner_forward_moveINS_27appender_decoder_compressed20decoder_log_templateEEENS_9enable_ifIXntaasr2bq31is_trivially_copy_constructibleIT_EE5valuesr2bq31is_trivially_move_constructibleIS4_EE5valueEvE4typeEPS4_S7_m, symObjAddr: 0x8DC8, symBinAddr: 0x448F4, symSize: 0x140 }
  - { offsetInCU: 0x3DFD, offset: 0x51E8A, size: 0x8, addend: 0x0, symName: __ZN2bq15_inner_mem_copyINS_27appender_decoder_compressed20decoder_log_templateEEENS_9enable_ifIXntaasr2bq31is_trivially_copy_constructibleIT_EE5valuesr2bq31is_trivially_move_constructibleIS4_EE5valueEvE4typeEPS4_S7_m, symObjAddr: 0x905C, symBinAddr: 0x44B88, symSize: 0xCC }
  - { offsetInCU: 0x3E6F, offset: 0x51EFC, size: 0x8, addend: 0x0, symName: __ZN2bq4moveIRNS_27appender_decoder_compressed20decoder_log_templateEEEONS_16remove_referenceIT_E4typeEOS5_, symObjAddr: 0x9144, symBinAddr: 0x44C54, symSize: 0x14 }
  - { offsetInCU: 0x3EA4, offset: 0x51F31, size: 0x8, addend: 0x0, symName: __ZN2bq4moveIRNS_27appender_decoder_compressed28decoder_thread_info_templateEEEONS_16remove_referenceIT_E4typeEOS5_, symObjAddr: 0xA710, symBinAddr: 0x45E6C, symSize: 0x14 }
  - { offsetInCU: 0x44D3, offset: 0x52560, size: 0x8, addend: 0x0, symName: __ZN2bq8hash_mapIyNS_27appender_decoder_compressed28decoder_thread_info_templateEE12expand_nodesEj, symObjAddr: 0xA028, symBinAddr: 0x45924, symSize: 0x2F0 }
  - { offsetInCU: 0x4B00, offset: 0x52B8D, size: 0x8, addend: 0x0, symName: __ZN2bq27appender_decoder_compressed12init_privateEv, symObjAddr: 0x0, symBinAddr: 0x3D048, symSize: 0x48 }
  - { offsetInCU: 0x4B26, offset: 0x52BB3, size: 0x8, addend: 0x0, symName: __ZN2bq5arrayINS_27appender_decoder_compressed20decoder_log_templateELm0EE5clearEv, symObjAddr: 0x48, symBinAddr: 0x3D090, symSize: 0x6C }
  - { offsetInCU: 0x4B4D, offset: 0x52BDA, size: 0x8, addend: 0x0, symName: __ZN2bq8hash_mapIyNS_27appender_decoder_compressed28decoder_thread_info_templateEE15set_expand_rateEf, symObjAddr: 0xB4, symBinAddr: 0x3D0FC, symSize: 0x20 }
  - { offsetInCU: 0x4BCB, offset: 0x52C58, size: 0x8, addend: 0x0, symName: __ZN2bq27appender_decoder_compressed14decode_privateEv, symObjAddr: 0xD4, symBinAddr: 0x3D11C, symSize: 0x248 }
  - { offsetInCU: 0x4D29, offset: 0x52DB6, size: 0x8, addend: 0x0, symName: __ZN2bq27appender_decoder_compressed14read_item_dataEv, symObjAddr: 0x394, symBinAddr: 0x3D364, symSize: 0x894 }
  - { offsetInCU: 0x4ED6, offset: 0x52F63, size: 0x8, addend: 0x0, symName: __ZN2bq27appender_decoder_compressed22parse_formate_templateERKNS_21appender_decoder_base22read_with_cache_handleE, symObjAddr: 0xCC0, symBinAddr: 0x3DC90, symSize: 0x82C }
  - { offsetInCU: 0x50CE, offset: 0x5315B, size: 0x8, addend: 0x0, symName: __ZN2bq27appender_decoder_compressed26parse_thread_info_templateERKNS_21appender_decoder_base22read_with_cache_handleE, symObjAddr: 0x1510, symBinAddr: 0x3E4E0, symSize: 0xD84 }
  - { offsetInCU: 0x53E3, offset: 0x53470, size: 0x8, addend: 0x0, symName: __ZN2bq27appender_decoder_compressed15parse_log_entryERKNS_21appender_decoder_base22read_with_cache_handleE, symObjAddr: 0x22DC, symBinAddr: 0x3F2AC, symSize: 0x3410 }
  - { offsetInCU: 0x5BA2, offset: 0x53C2F, size: 0x8, addend: 0x0, symName: __ZNK2bq27appender_decoder_compressed25get_binary_format_versionEv, symObjAddr: 0x5830, symBinAddr: 0x42800, symSize: 0x14 }
  - { offsetInCU: 0x5BC8, offset: 0x53C55, size: 0x8, addend: 0x0, symName: __ZN2bq5arrayINS_27appender_decoder_compressed20decoder_log_templateELm0EE9push_backIJS2_EEEmDpOT_, symObjAddr: 0x58FC, symBinAddr: 0x428CC, symSize: 0x58 }
  - { offsetInCU: 0x5C0D, offset: 0x53C9A, size: 0x8, addend: 0x0, symName: __ZN2bq27appender_decoder_compressed20decoder_log_templateC1Ev, symObjAddr: 0x5954, symBinAddr: 0x42924, symSize: 0x2C }
  - { offsetInCU: 0x5C37, offset: 0x53CC4, size: 0x8, addend: 0x0, symName: __ZN2bq27appender_decoder_compressed20decoder_log_templateD1Ev, symObjAddr: 0x5980, symBinAddr: 0x42950, symSize: 0x2C }
  - { offsetInCU: 0x5C61, offset: 0x53CEE, size: 0x8, addend: 0x0, symName: __ZN2bq5arrayINS_27appender_decoder_compressed20decoder_log_templateELm0EEixEm, symObjAddr: 0x59AC, symBinAddr: 0x4297C, symSize: 0x7C }
  - { offsetInCU: 0x5C96, offset: 0x53D23, size: 0x8, addend: 0x0, symName: __ZNK2bq5arrayINS_27appender_decoder_compressed20decoder_log_templateELm0EE4sizeEv, symObjAddr: 0x5A28, symBinAddr: 0x429F8, symSize: 0x18 }
  - { offsetInCU: 0x5CBD, offset: 0x53D4A, size: 0x8, addend: 0x0, symName: __ZN2bq8hash_mapIyNS_27appender_decoder_compressed28decoder_thread_info_templateEEixERKy, symObjAddr: 0x5D4C, symBinAddr: 0x42A10, symSize: 0x90 }
  - { offsetInCU: 0x5CFF, offset: 0x53D8C, size: 0x8, addend: 0x0, symName: __ZN2bq8hash_mapIyNS_27appender_decoder_compressed28decoder_thread_info_templateEE4findERKy, symObjAddr: 0x5F2C, symBinAddr: 0x42AA0, symSize: 0x74 }
  - { offsetInCU: 0x5D41, offset: 0x53DCE, size: 0x8, addend: 0x0, symName: __ZN2bq8hash_mapIyNS_27appender_decoder_compressed28decoder_thread_info_templateEE3endEv, symObjAddr: 0x6084, symBinAddr: 0x42BF8, symSize: 0x38 }
  - { offsetInCU: 0x5D68, offset: 0x53DF5, size: 0x8, addend: 0x0, symName: __ZN2bq5arrayIhLm0EEixEm, symObjAddr: 0x61E4, symBinAddr: 0x42C30, symSize: 0x74 }
  - { offsetInCU: 0x5D9D, offset: 0x53E2A, size: 0x8, addend: 0x0, symName: __ZN2bq14array_iteratorIhNS_5arrayIhLm0EEEEplEi, symObjAddr: 0x63A4, symBinAddr: 0x42CA4, symSize: 0x40 }
  - { offsetInCU: 0x5DDF, offset: 0x53E6C, size: 0x8, addend: 0x0, symName: __ZN2bq17hash_map_iteratorIyNS_27appender_decoder_compressed28decoder_thread_info_templateELb0EEptEv, symObjAddr: 0x63E4, symBinAddr: 0x42CE4, symSize: 0x34 }
  - { offsetInCU: 0x5E05, offset: 0x53E92, size: 0x8, addend: 0x0, symName: __ZN2bq7kv_pairIyNS_27appender_decoder_compressed28decoder_thread_info_templateEE5valueEv, symObjAddr: 0x6418, symBinAddr: 0x42D18, symSize: 0x18 }
  - { offsetInCU: 0x5E29, offset: 0x53EB6, size: 0x8, addend: 0x0, symName: __ZN2bq16log_entry_handleC1EPKhj, symObjAddr: 0x6448, symBinAddr: 0x42D30, symSize: 0x3C }
  - { offsetInCU: 0x5E6D, offset: 0x53EFA, size: 0x8, addend: 0x0, symName: __ZN2bq27appender_decoder_compressedD1Ev, symObjAddr: 0x6484, symBinAddr: 0x42D6C, symSize: 0x2C }
  - { offsetInCU: 0x5E97, offset: 0x53F24, size: 0x8, addend: 0x0, symName: __ZN2bq27appender_decoder_compressedD0Ev, symObjAddr: 0x64B0, symBinAddr: 0x42D98, symSize: 0x30 }
  - { offsetInCU: 0x5EC1, offset: 0x53F4E, size: 0x8, addend: 0x0, symName: __ZN2bq26__tuple_element_value_implILm2ENS_22appender_decode_resultELb0EE3getEv, symObjAddr: 0x64E0, symBinAddr: 0x42DC8, symSize: 0x14 }
  - { offsetInCU: 0x5EE5, offset: 0x53F72, size: 0x8, addend: 0x0, symName: __ZN2bq26__tuple_element_value_implILm0ENS_21appender_decoder_base22read_with_cache_handleELb0EE3getEv, symObjAddr: 0x6508, symBinAddr: 0x42DDC, symSize: 0x14 }
  - { offsetInCU: 0x5F09, offset: 0x53F96, size: 0x8, addend: 0x0, symName: __ZN2bq27appender_decoder_compressed20decoder_log_templateC2Ev, symObjAddr: 0x651C, symBinAddr: 0x42DF0, symSize: 0x48 }
  - { offsetInCU: 0x5F33, offset: 0x53FC0, size: 0x8, addend: 0x0, symName: __ZN2bq27appender_decoder_compressed20decoder_log_templateD2Ev, symObjAddr: 0x65DC, symBinAddr: 0x42E38, symSize: 0x30 }
  - { offsetInCU: 0x5F5D, offset: 0x53FEA, size: 0x8, addend: 0x0, symName: __ZN2bq16log_entry_handleC2EPKhj, symObjAddr: 0x66EC, symBinAddr: 0x42E68, symSize: 0x2C }
  - { offsetInCU: 0x5FA1, offset: 0x5402E, size: 0x8, addend: 0x0, symName: __ZN2bq27appender_decoder_compressedD2Ev, symObjAddr: 0x6718, symBinAddr: 0x42E94, symSize: 0x60 }
  - { offsetInCU: 0x5FCB, offset: 0x54058, size: 0x8, addend: 0x0, symName: __ZN2bq8hash_mapIyNS_27appender_decoder_compressed28decoder_thread_info_templateEED1Ev, symObjAddr: 0x67A4, symBinAddr: 0x42EF4, symSize: 0x2C }
  - { offsetInCU: 0x5FF5, offset: 0x54082, size: 0x8, addend: 0x0, symName: __ZN2bq5arrayINS_27appender_decoder_compressed20decoder_log_templateELm0EED1Ev, symObjAddr: 0x67D0, symBinAddr: 0x42F20, symSize: 0x2C }
  - { offsetInCU: 0x601F, offset: 0x540AC, size: 0x8, addend: 0x0, symName: __ZN2bq21appender_decoder_baseD2Ev, symObjAddr: 0x67FC, symBinAddr: 0x42F4C, symSize: 0x70 }
  - { offsetInCU: 0x6047, offset: 0x540D4, size: 0x8, addend: 0x0, symName: __ZN2bq8hash_mapIyNS_27appender_decoder_compressed28decoder_thread_info_templateEED2Ev, symObjAddr: 0x68F4, symBinAddr: 0x42FBC, symSize: 0x2C }
  - { offsetInCU: 0x6071, offset: 0x540FE, size: 0x8, addend: 0x0, symName: __ZN2bq8hash_mapIyNS_27appender_decoder_compressed28decoder_thread_info_templateEE5resetEv, symObjAddr: 0x6920, symBinAddr: 0x42FE8, symSize: 0xF8 }
  - { offsetInCU: 0x60B5, offset: 0x54142, size: 0x8, addend: 0x0, symName: __ZN2bq8hash_mapIyNS_27appender_decoder_compressed28decoder_thread_info_templateEE5beginEv, symObjAddr: 0x6A18, symBinAddr: 0x430E0, symSize: 0x84 }
  - { offsetInCU: 0x60DC, offset: 0x54169, size: 0x8, addend: 0x0, symName: __ZN2bq8hash_mapIyNS_27appender_decoder_compressed28decoder_thread_info_templateEE8destructERNS_17hash_map_iteratorIyS2_Lb0EEE, symObjAddr: 0x6AD0, symBinAddr: 0x43198, symSize: 0x3C }
  - { offsetInCU: 0x6112, offset: 0x5419F, size: 0x8, addend: 0x0, symName: __ZN2bq17hash_map_iteratorIyNS_27appender_decoder_compressed28decoder_thread_info_templateELb0EEppEv, symObjAddr: 0x6B0C, symBinAddr: 0x431D4, symSize: 0x88 }
  - { offsetInCU: 0x6138, offset: 0x541C5, size: 0x8, addend: 0x0, symName: __ZN2bq8hash_mapIyNS_27appender_decoder_compressed28decoder_thread_info_templateEE22value_node_buffer_headINS3_10value_nodeEEixEj, symObjAddr: 0x6B94, symBinAddr: 0x4325C, symSize: 0x7C }
  - { offsetInCU: 0x616A, offset: 0x541F7, size: 0x8, addend: 0x0, symName: __ZN2bq17hash_map_iteratorIyNS_27appender_decoder_compressed28decoder_thread_info_templateELb0EEC1EPNS_8hash_mapIyS2_EEjj, symObjAddr: 0x6C10, symBinAddr: 0x432D8, symSize: 0x44 }
  - { offsetInCU: 0x61BC, offset: 0x54249, size: 0x8, addend: 0x0, symName: __ZN2bq17hash_map_iteratorIyNS_27appender_decoder_compressed28decoder_thread_info_templateELb0EEC2EPNS_8hash_mapIyS2_EEjj, symObjAddr: 0x6C54, symBinAddr: 0x4331C, symSize: 0x38 }
  - { offsetInCU: 0x620E, offset: 0x5429B, size: 0x8, addend: 0x0, symName: __ZN2bq8hash_mapIyNS_27appender_decoder_compressed28decoder_thread_info_templateEE12destruct_keyERNS_17hash_map_iteratorIyS2_Lb0EEE, symObjAddr: 0x6C8C, symBinAddr: 0x43354, symSize: 0x2C }
  - { offsetInCU: 0x6244, offset: 0x542D1, size: 0x8, addend: 0x0, symName: __ZN2bq8hash_mapIyNS_27appender_decoder_compressed28decoder_thread_info_templateEE14destruct_valueERNS_17hash_map_iteratorIyS2_Lb0EEE, symObjAddr: 0x6CB8, symBinAddr: 0x43380, symSize: 0x30 }
  - { offsetInCU: 0x627E, offset: 0x5430B, size: 0x8, addend: 0x0, symName: __ZN2bq17object_destructorINS_27appender_decoder_compressed28decoder_thread_info_templateEE8destructEPS2_, symObjAddr: 0x6D1C, symBinAddr: 0x433B0, symSize: 0x24 }
  - { offsetInCU: 0x62A0, offset: 0x5432D, size: 0x8, addend: 0x0, symName: __ZN2bq17object_destructorINS_27appender_decoder_compressed28decoder_thread_info_templateEE15destructor_implIS2_NS3_27non_trivial_destructor_typeEE8destructEPS2_, symObjAddr: 0x6D40, symBinAddr: 0x433D4, symSize: 0x3C }
  - { offsetInCU: 0x62C7, offset: 0x54354, size: 0x8, addend: 0x0, symName: __ZN2bq27appender_decoder_compressed28decoder_thread_info_templateD1Ev, symObjAddr: 0x6D7C, symBinAddr: 0x43410, symSize: 0x2C }
  - { offsetInCU: 0x62F1, offset: 0x5437E, size: 0x8, addend: 0x0, symName: __ZN2bq27appender_decoder_compressed28decoder_thread_info_templateD2Ev, symObjAddr: 0x6DA8, symBinAddr: 0x4343C, symSize: 0x30 }
  - { offsetInCU: 0x631B, offset: 0x543A8, size: 0x8, addend: 0x0, symName: __ZNK2bq8hash_mapIyNS_27appender_decoder_compressed28decoder_thread_info_templateEE19get_next_node_indexEj, symObjAddr: 0x6DD8, symBinAddr: 0x4346C, symSize: 0x68 }
  - { offsetInCU: 0x6351, offset: 0x543DE, size: 0x8, addend: 0x0, symName: __ZNK2bq8hash_mapIyNS_27appender_decoder_compressed28decoder_thread_info_templateEE22value_node_buffer_headINS3_10value_nodeEEixEj, symObjAddr: 0x6E40, symBinAddr: 0x434D4, symSize: 0x7C }
  - { offsetInCU: 0x6383, offset: 0x54410, size: 0x8, addend: 0x0, symName: __ZN2bq5arrayINS_27appender_decoder_compressed20decoder_log_templateELm0EED2Ev, symObjAddr: 0x6EBC, symBinAddr: 0x43550, symSize: 0x2C }
  - { offsetInCU: 0x63AD, offset: 0x5443A, size: 0x8, addend: 0x0, symName: __ZN2bq5arrayINS_27appender_decoder_compressed20decoder_log_templateELm0EE5resetIS2_EENS_9enable_ifIXntsr2bq6is_podIT_EE5valueEvE4typeEv, symObjAddr: 0x6EE8, symBinAddr: 0x4357C, symSize: 0x6C }
  - { offsetInCU: 0x63E2, offset: 0x5446F, size: 0x8, addend: 0x0, symName: __ZN2bq23object_array_destructorINS_27appender_decoder_compressed20decoder_log_templateEE8destructEPS2_m, symObjAddr: 0x6F54, symBinAddr: 0x435E8, symSize: 0x2C }
  - { offsetInCU: 0x6412, offset: 0x5449F, size: 0x8, addend: 0x0, symName: __ZN2bq23object_array_destructorINS_27appender_decoder_compressed20decoder_log_templateEE15destructor_implIS2_NS3_27non_trivial_destructor_typeEE8destructEPS2_m, symObjAddr: 0x6F80, symBinAddr: 0x43614, symSize: 0x84 }
  - { offsetInCU: 0x645E, offset: 0x544EB, size: 0x8, addend: 0x0, symName: __ZN2bq17object_destructorINS_27appender_decoder_compressed20decoder_log_templateEE8destructEPS2_, symObjAddr: 0x7004, symBinAddr: 0x43698, symSize: 0x24 }
  - { offsetInCU: 0x6480, offset: 0x5450D, size: 0x8, addend: 0x0, symName: __ZN2bq17object_destructorINS_27appender_decoder_compressed20decoder_log_templateEE15destructor_implIS2_NS3_27non_trivial_destructor_typeEE8destructEPS2_, symObjAddr: 0x7028, symBinAddr: 0x436BC, symSize: 0x3C }
  - { offsetInCU: 0x64A2, offset: 0x5452F, size: 0x8, addend: 0x0, symName: __ZN2bq6layoutD1Ev, symObjAddr: 0x7090, symBinAddr: 0x436F8, symSize: 0x2C }
  - { offsetInCU: 0x64CC, offset: 0x54559, size: 0x8, addend: 0x0, symName: __ZN2bq21appender_decoder_baseD1Ev, symObjAddr: 0x70BC, symBinAddr: 0x43724, symSize: 0x14 }
  - { offsetInCU: 0x64F4, offset: 0x54581, size: 0x8, addend: 0x0, symName: __ZN2bq21appender_decoder_baseD0Ev, symObjAddr: 0x70D0, symBinAddr: 0x43738, symSize: 0xC }
  - { offsetInCU: 0x651C, offset: 0x545A9, size: 0x8, addend: 0x0, symName: __ZN2bq6layoutD2Ev, symObjAddr: 0x7284, symBinAddr: 0x43744, symSize: 0x3C }
  - { offsetInCU: 0x6546, offset: 0x545D3, size: 0x8, addend: 0x0, symName: __ZN2bq8hash_mapIyNS_11string_baseIcEEED1Ev, symObjAddr: 0x72C0, symBinAddr: 0x43780, symSize: 0x2C }
  - { offsetInCU: 0x6570, offset: 0x545FD, size: 0x8, addend: 0x0, symName: __ZN2bq8hash_mapIyNS_11string_baseIcEEED2Ev, symObjAddr: 0x7318, symBinAddr: 0x437AC, symSize: 0x2C }
  - { offsetInCU: 0x659A, offset: 0x54627, size: 0x8, addend: 0x0, symName: __ZN2bq8hash_mapIyNS_11string_baseIcEEE5resetEv, symObjAddr: 0x7344, symBinAddr: 0x437D8, symSize: 0xF8 }
  - { offsetInCU: 0x65DE, offset: 0x5466B, size: 0x8, addend: 0x0, symName: __ZN2bq8hash_mapIyNS_11string_baseIcEEE5beginEv, symObjAddr: 0x743C, symBinAddr: 0x438D0, symSize: 0x84 }
  - { offsetInCU: 0x6605, offset: 0x54692, size: 0x8, addend: 0x0, symName: __ZN2bq8hash_mapIyNS_11string_baseIcEEE3endEv, symObjAddr: 0x74F4, symBinAddr: 0x43988, symSize: 0x38 }
  - { offsetInCU: 0x662C, offset: 0x546B9, size: 0x8, addend: 0x0, symName: __ZN2bq8hash_mapIyNS_11string_baseIcEEE8destructERNS_17hash_map_iteratorIyS2_Lb0EEE, symObjAddr: 0x752C, symBinAddr: 0x439C0, symSize: 0x3C }
  - { offsetInCU: 0x6662, offset: 0x546EF, size: 0x8, addend: 0x0, symName: __ZN2bq17hash_map_iteratorIyNS_11string_baseIcEELb0EEppEv, symObjAddr: 0x7568, symBinAddr: 0x439FC, symSize: 0x88 }
  - { offsetInCU: 0x6688, offset: 0x54715, size: 0x8, addend: 0x0, symName: __ZN2bq8hash_mapIyNS_11string_baseIcEEE22value_node_buffer_headINS3_10value_nodeEEixEj, symObjAddr: 0x75F0, symBinAddr: 0x43A84, symSize: 0x7C }
  - { offsetInCU: 0x66BA, offset: 0x54747, size: 0x8, addend: 0x0, symName: __ZN2bq17hash_map_iteratorIyNS_11string_baseIcEELb0EEC1EPNS_8hash_mapIyS2_EEjj, symObjAddr: 0x766C, symBinAddr: 0x43B00, symSize: 0x44 }
  - { offsetInCU: 0x670C, offset: 0x54799, size: 0x8, addend: 0x0, symName: __ZN2bq17hash_map_iteratorIyNS_11string_baseIcEELb0EEC2EPNS_8hash_mapIyS2_EEjj, symObjAddr: 0x76B0, symBinAddr: 0x43B44, symSize: 0x38 }
  - { offsetInCU: 0x675E, offset: 0x547EB, size: 0x8, addend: 0x0, symName: __ZN2bq8hash_mapIyNS_11string_baseIcEEE12destruct_keyERNS_17hash_map_iteratorIyS2_Lb0EEE, symObjAddr: 0x77CC, symBinAddr: 0x43C60, symSize: 0x2C }
  - { offsetInCU: 0x6794, offset: 0x54821, size: 0x8, addend: 0x0, symName: __ZN2bq8hash_mapIyNS_11string_baseIcEEE14destruct_valueERNS_17hash_map_iteratorIyS2_Lb0EEE, symObjAddr: 0x77F8, symBinAddr: 0x43C8C, symSize: 0x30 }
  - { offsetInCU: 0x67C9, offset: 0x54856, size: 0x8, addend: 0x0, symName: __ZN2bq17hash_map_iteratorIyNS_11string_baseIcEELb0EEptEv, symObjAddr: 0x7828, symBinAddr: 0x43CBC, symSize: 0x34 }
  - { offsetInCU: 0x67EF, offset: 0x5487C, size: 0x8, addend: 0x0, symName: __ZN2bq7kv_pairIyNS_11string_baseIcEEE5valueEv, symObjAddr: 0x785C, symBinAddr: 0x43CF0, symSize: 0x18 }
  - { offsetInCU: 0x6813, offset: 0x548A0, size: 0x8, addend: 0x0, symName: __ZNK2bq8hash_mapIyNS_11string_baseIcEEE19get_next_node_indexEj, symObjAddr: 0x7874, symBinAddr: 0x43D08, symSize: 0x68 }
  - { offsetInCU: 0x6849, offset: 0x548D6, size: 0x8, addend: 0x0, symName: __ZNK2bq8hash_mapIyNS_11string_baseIcEEE22value_node_buffer_headINS3_10value_nodeEEixEj, symObjAddr: 0x78DC, symBinAddr: 0x43D70, symSize: 0x7C }
  - { offsetInCU: 0x6885, offset: 0x54912, size: 0x8, addend: 0x0, symName: __ZN2bq5tupleIJNS_22appender_decode_resultENS_24appender_file_compressed9item_typeENS_21appender_decoder_base22read_with_cache_handleEEEC1IS1_JS3_RS5_EEEOT_DpOT0_, symObjAddr: 0x81D4, symBinAddr: 0x43E14, symSize: 0x44 }
  - { offsetInCU: 0x68F3, offset: 0x54980, size: 0x8, addend: 0x0, symName: __ZN2bq5tupleIJNS_22appender_decode_resultENS_24appender_file_compressed9item_typeENS_21appender_decoder_base22read_with_cache_handleEEEC2IS1_JS3_RS5_EEEOT_DpOT0_, symObjAddr: 0x8218, symBinAddr: 0x43E58, symSize: 0x70 }
  - { offsetInCU: 0x6961, offset: 0x549EE, size: 0x8, addend: 0x0, symName: __ZN2bq21__tuple_element_valueILm2ENS_22appender_decode_resultEEC2IS1_EEOT_, symObjAddr: 0x8288, symBinAddr: 0x43EC8, symSize: 0x40 }
  - { offsetInCU: 0x69A1, offset: 0x54A2E, size: 0x8, addend: 0x0, symName: __ZN2bq5tupleIJNS_24appender_file_compressed9item_typeENS_21appender_decoder_base22read_with_cache_handleEEEC2IS2_JRS4_EEEOT_DpOT0_, symObjAddr: 0x82C8, symBinAddr: 0x43F08, symSize: 0x5C }
  - { offsetInCU: 0x69FB, offset: 0x54A88, size: 0x8, addend: 0x0, symName: __ZN2bq26__tuple_element_value_implILm2ENS_22appender_decode_resultELb0EEC2IS1_EEOT_, symObjAddr: 0x8324, symBinAddr: 0x43F64, symSize: 0x40 }
  - { offsetInCU: 0x6A3B, offset: 0x54AC8, size: 0x8, addend: 0x0, symName: __ZN2bq5tupleIJNS_21appender_decoder_base22read_with_cache_handleEEEC2IRS2_JEEEOT_DpOT0_, symObjAddr: 0x83A4, symBinAddr: 0x43FA4, symSize: 0x40 }
  - { offsetInCU: 0x6A81, offset: 0x54B0E, size: 0x8, addend: 0x0, symName: __ZN2bq21__tuple_element_valueILm0ENS_21appender_decoder_base22read_with_cache_handleEEC2IRS2_EEOT_, symObjAddr: 0x8424, symBinAddr: 0x43FE4, symSize: 0x40 }
  - { offsetInCU: 0x6AC1, offset: 0x54B4E, size: 0x8, addend: 0x0, symName: __ZN2bq26__tuple_element_value_implILm0ENS_21appender_decoder_base22read_with_cache_handleELb0EEC2IRS2_EEOT_, symObjAddr: 0x8464, symBinAddr: 0x44024, symSize: 0x40 }
  - { offsetInCU: 0x6B01, offset: 0x54B8E, size: 0x8, addend: 0x0, symName: __ZN2bq5tupleIJNS_22appender_decode_resultENS_24appender_file_compressed9item_typeENS_21appender_decoder_base22read_with_cache_handleEEEC1IS1_JRS3_RS5_EEEOT_DpOT0_, symObjAddr: 0x84B8, symBinAddr: 0x44064, symSize: 0x44 }
  - { offsetInCU: 0x6B6F, offset: 0x54BFC, size: 0x8, addend: 0x0, symName: __ZN2bq5tupleIJNS_22appender_decode_resultENS_24appender_file_compressed9item_typeENS_21appender_decoder_base22read_with_cache_handleEEEC2IS1_JRS3_RS5_EEEOT_DpOT0_, symObjAddr: 0x84FC, symBinAddr: 0x440A8, symSize: 0x70 }
  - { offsetInCU: 0x6BDD, offset: 0x54C6A, size: 0x8, addend: 0x0, symName: __ZN2bq5tupleIJNS_24appender_file_compressed9item_typeENS_21appender_decoder_base22read_with_cache_handleEEEC2IRS2_JRS4_EEEOT_DpOT0_, symObjAddr: 0x856C, symBinAddr: 0x44118, symSize: 0x5C }
  - { offsetInCU: 0x6C37, offset: 0x54CC4, size: 0x8, addend: 0x0, symName: __ZN2bq5arrayINS_27appender_decoder_compressed20decoder_log_templateELm0EE6insertIJS2_EEEvNS_14array_iteratorIS2_S3_EEDpOT_, symObjAddr: 0x8648, symBinAddr: 0x44174, symSize: 0x288 }
  - { offsetInCU: 0x6CC5, offset: 0x54D52, size: 0x8, addend: 0x0, symName: __ZN2bq5arrayINS_27appender_decoder_compressed20decoder_log_templateELm0EE3endEv, symObjAddr: 0x88D0, symBinAddr: 0x443FC, symSize: 0x44 }
  - { offsetInCU: 0x6CEC, offset: 0x54D79, size: 0x8, addend: 0x0, symName: __ZN2bq5arrayINS_27appender_decoder_compressed20decoder_log_templateELm0EE5beginEv, symObjAddr: 0x89C8, symBinAddr: 0x444F4, symSize: 0x34 }
  - { offsetInCU: 0x6D13, offset: 0x54DA0, size: 0x8, addend: 0x0, symName: __ZN2bq5arrayINS_27appender_decoder_compressed20decoder_log_templateELm0EE12set_capacityEmb, symObjAddr: 0x8B3C, symBinAddr: 0x44668, symSize: 0x230 }
  - { offsetInCU: 0x6D82, offset: 0x54E0F, size: 0x8, addend: 0x0, symName: __ZN2bq14array_iteratorINS_27appender_decoder_compressed20decoder_log_templateENS_5arrayIS2_Lm0EEEEplEm, symObjAddr: 0x8D6C, symBinAddr: 0x44898, symSize: 0x44 }
  - { offsetInCU: 0x6DC4, offset: 0x54E51, size: 0x8, addend: 0x0, symName: __ZNK2bq14array_iteratorINS_27appender_decoder_compressed20decoder_log_templateENS_5arrayIS2_Lm0EEEEcvPS2_Ev, symObjAddr: 0x8DB0, symBinAddr: 0x448DC, symSize: 0x18 }
  - { offsetInCU: 0x6DEA, offset: 0x54E77, size: 0x8, addend: 0x0, symName: __ZN2bq5arrayINS_27appender_decoder_compressed20decoder_log_templateELm0EE8destructENS_14array_iteratorIS2_S3_EE, symObjAddr: 0x8F08, symBinAddr: 0x44A34, symSize: 0x34 }
  - { offsetInCU: 0x6E1F, offset: 0x54EAC, size: 0x8, addend: 0x0, symName: __ZN2bq5arrayINS_27appender_decoder_compressed20decoder_log_templateELm0EE9constructIJS2_EEEvNS_14array_iteratorIS2_S3_EEDpOT_, symObjAddr: 0x8F3C, symBinAddr: 0x44A68, symSize: 0x74 }
  - { offsetInCU: 0x6E81, offset: 0x54F0E, size: 0x8, addend: 0x0, symName: __ZN2bq14array_iteratorINS_27appender_decoder_compressed20decoder_log_templateENS_5arrayIS2_Lm0EEEEC1IS2_EEPT_PKS4_, symObjAddr: 0x8FB0, symBinAddr: 0x44ADC, symSize: 0x3C }
  - { offsetInCU: 0x6ED0, offset: 0x54F5D, size: 0x8, addend: 0x0, symName: __ZN2bq14array_iteratorINS_27appender_decoder_compressed20decoder_log_templateENS_5arrayIS2_Lm0EEEEC2IS2_EEPT_PKS4_, symObjAddr: 0x8FEC, symBinAddr: 0x44B18, symSize: 0x70 }
  - { offsetInCU: 0x6F1F, offset: 0x54FAC, size: 0x8, addend: 0x0, symName: __ZN2bq27appender_decoder_compressed20decoder_log_templateC1EOS1_, symObjAddr: 0x9158, symBinAddr: 0x44C68, symSize: 0x34 }
  - { offsetInCU: 0x6F52, offset: 0x54FDF, size: 0x8, addend: 0x0, symName: __ZN2bq27appender_decoder_compressed20decoder_log_templateC2EOS1_, symObjAddr: 0x918C, symBinAddr: 0x44C9C, symSize: 0x48 }
  - { offsetInCU: 0x6F85, offset: 0x55012, size: 0x8, addend: 0x0, symName: __ZN2bq14array_iteratorINS_27appender_decoder_compressed20decoder_log_templateENS_5arrayIS2_Lm0EEEEpLEi, symObjAddr: 0x92E0, symBinAddr: 0x44CE4, symSize: 0x30 }
  - { offsetInCU: 0x6FBE, offset: 0x5504B, size: 0x8, addend: 0x0, symName: __ZN2bq27appender_decoder_compressed20decoder_log_templateaSEOS1_, symObjAddr: 0x9310, symBinAddr: 0x44D14, symSize: 0x48 }
  - { offsetInCU: 0x6FED, offset: 0x5507A, size: 0x8, addend: 0x0, symName: __ZNK2bq14array_iteratorINS_27appender_decoder_compressed20decoder_log_templateENS_5arrayIS2_Lm0EEEEptEv, symObjAddr: 0x93C4, symBinAddr: 0x44D5C, symSize: 0x18 }
  - { offsetInCU: 0x7013, offset: 0x550A0, size: 0x8, addend: 0x0, symName: __ZNK2bq17hash_map_iteratorIyNS_27appender_decoder_compressed28decoder_thread_info_templateELb0EEcvbEv, symObjAddr: 0x944C, symBinAddr: 0x44D74, symSize: 0x44 }
  - { offsetInCU: 0x7039, offset: 0x550C6, size: 0x8, addend: 0x0, symName: __ZN2bq8hash_mapIyNS_27appender_decoder_compressed28decoder_thread_info_templateEE3addERKy, symObjAddr: 0x9490, symBinAddr: 0x44DB8, symSize: 0x64 }
  - { offsetInCU: 0x707B, offset: 0x55108, size: 0x8, addend: 0x0, symName: __ZNK2bq8hash_mapIyNS_27appender_decoder_compressed28decoder_thread_info_templateEE20iterator_legal_checkERKNS_17hash_map_iteratorIyS2_Lb1EEE, symObjAddr: 0x94F4, symBinAddr: 0x44E1C, symSize: 0x124 }
  - { offsetInCU: 0x70B5, offset: 0x55142, size: 0x8, addend: 0x0, symName: __ZN2bq17hash_map_iteratorIyNS_27appender_decoder_compressed28decoder_thread_info_templateELb1EEC1ILb0EEERKNS0_IyS2_XT_EEE, symObjAddr: 0x9618, symBinAddr: 0x44F40, symSize: 0x34 }
  - { offsetInCU: 0x70F5, offset: 0x55182, size: 0x8, addend: 0x0, symName: __ZNK2bq8hash_mapIyNS_27appender_decoder_compressed28decoder_thread_info_templateEE22value_node_buffer_headINS3_10value_nodeEE4sizeEv, symObjAddr: 0x964C, symBinAddr: 0x44F74, symSize: 0x18 }
  - { offsetInCU: 0x7119, offset: 0x551A6, size: 0x8, addend: 0x0, symName: __ZN2bq17hash_map_iteratorIyNS_27appender_decoder_compressed28decoder_thread_info_templateELb1EEC2ILb0EEERKNS0_IyS2_XT_EEE, symObjAddr: 0x9664, symBinAddr: 0x44F8C, symSize: 0x3C }
  - { offsetInCU: 0x7159, offset: 0x551E6, size: 0x8, addend: 0x0, symName: __ZN2bq8hash_mapIyNS_27appender_decoder_compressed28decoder_thread_info_templateEE17alloc_node_by_keyERKy, symObjAddr: 0x96A0, symBinAddr: 0x44FC8, symSize: 0x304 }
  - { offsetInCU: 0x7251, offset: 0x552DE, size: 0x8, addend: 0x0, symName: __ZN2bq8hash_mapIyNS_27appender_decoder_compressed28decoder_thread_info_templateEE15construct_valueERNS_17hash_map_iteratorIyS2_Lb0EEE, symObjAddr: 0x99A4, symBinAddr: 0x452CC, symSize: 0x68 }
  - { offsetInCU: 0x7286, offset: 0x55313, size: 0x8, addend: 0x0, symName: __ZNK2bq8hash_mapIyNS_27appender_decoder_compressed28decoder_thread_info_templateEE4sizeEv, symObjAddr: 0x9A0C, symBinAddr: 0x45334, symSize: 0x18 }
  - { offsetInCU: 0x72AC, offset: 0x55339, size: 0x8, addend: 0x0, symName: __ZNK2bq8hash_mapIyNS_27appender_decoder_compressed28decoder_thread_info_templateEE12buckets_sizeEv, symObjAddr: 0x9A24, symBinAddr: 0x4534C, symSize: 0x24 }
  - { offsetInCU: 0x72D2, offset: 0x5535F, size: 0x8, addend: 0x0, symName: __ZN2bq8hash_mapIyNS_27appender_decoder_compressed28decoder_thread_info_templateEE14expand_bucketsEj, symObjAddr: 0x9A48, symBinAddr: 0x45370, symSize: 0x494 }
  - { offsetInCU: 0x73D7, offset: 0x55464, size: 0x8, addend: 0x0, symName: __ZNK2bq8hash_mapIyNS_27appender_decoder_compressed28decoder_thread_info_templateEE32find_index_and_bucket_idx_by_keyERKy, symObjAddr: 0x9EDC, symBinAddr: 0x45804, symSize: 0x120 }
  - { offsetInCU: 0x7465, offset: 0x554F2, size: 0x8, addend: 0x0, symName: __ZNK2bq8hash_mapIyNS_27appender_decoder_compressed28decoder_thread_info_templateEE10nodes_sizeEv, symObjAddr: 0xA318, symBinAddr: 0x45C14, symSize: 0x28 }
  - { offsetInCU: 0x748B, offset: 0x55518, size: 0x8, addend: 0x0, symName: __ZN2bq8hash_mapIyNS_27appender_decoder_compressed28decoder_thread_info_templateEE22value_node_buffer_headIjEixEj, symObjAddr: 0xA340, symBinAddr: 0x45C3C, symSize: 0x74 }
  - { offsetInCU: 0x74BD, offset: 0x5554A, size: 0x8, addend: 0x0, symName: __ZN2bq8hash_mapIyNS_27appender_decoder_compressed28decoder_thread_info_templateEE13construct_keyIRKyEEvRNS_17hash_map_iteratorIyS2_Lb0EEEOT_, symObjAddr: 0xA3B4, symBinAddr: 0x45CB0, symSize: 0x68 }
  - { offsetInCU: 0x7509, offset: 0x55596, size: 0x8, addend: 0x0, symName: __ZNK2bq8hash_mapIyNS_27appender_decoder_compressed28decoder_thread_info_templateEE22value_node_buffer_headIjE4sizeEv, symObjAddr: 0xA41C, symBinAddr: 0x45D18, symSize: 0x18 }
  - { offsetInCU: 0x752D, offset: 0x555BA, size: 0x8, addend: 0x0, symName: __ZNK2bq8hash_mapIyNS_27appender_decoder_compressed28decoder_thread_info_templateEE23get_bucket_index_by_keyERKy, symObjAddr: 0xA4B8, symBinAddr: 0x45D30, symSize: 0x44 }
  - { offsetInCU: 0x7572, offset: 0x555FF, size: 0x8, addend: 0x0, symName: __ZNK2bq7kv_pairIyNS_27appender_decoder_compressed28decoder_thread_info_templateEE3keyEv, symObjAddr: 0xA4FC, symBinAddr: 0x45D74, symSize: 0x14 }
  - { offsetInCU: 0x7596, offset: 0x55623, size: 0x8, addend: 0x0, symName: __ZNK2bq8hash_mapIyNS_27appender_decoder_compressed28decoder_thread_info_templateEE24get_bucket_index_by_hashEy, symObjAddr: 0xA534, symBinAddr: 0x45D88, symSize: 0x3C }
  - { offsetInCU: 0x75CC, offset: 0x55659, size: 0x8, addend: 0x0, symName: __ZNK2bq8hash_mapIyNS_27appender_decoder_compressed28decoder_thread_info_templateEE22value_node_buffer_headIjEixEj, symObjAddr: 0xA5AC, symBinAddr: 0x45DC4, symSize: 0x74 }
  - { offsetInCU: 0x75FE, offset: 0x5568B, size: 0x8, addend: 0x0, symName: __ZN2bq17hash_map_iteratorIyNS_27appender_decoder_compressed28decoder_thread_info_templateELb0EEdeEv, symObjAddr: 0xA6DC, symBinAddr: 0x45E38, symSize: 0x34 }
  - { offsetInCU: 0x7629, offset: 0x556B6, size: 0x8, addend: 0x0, symName: __ZN2bq27appender_decoder_compressed28decoder_thread_info_templateC1EOS1_, symObjAddr: 0xA724, symBinAddr: 0x45E80, symSize: 0x34 }
  - { offsetInCU: 0x765C, offset: 0x556E9, size: 0x8, addend: 0x0, symName: __ZN2bq27appender_decoder_compressed28decoder_thread_info_templateC2EOS1_, symObjAddr: 0xA758, symBinAddr: 0x45EB4, symSize: 0x48 }
  - { offsetInCU: 0x768F, offset: 0x5571C, size: 0x8, addend: 0x0, symName: __ZN2bq27appender_decoder_compressed28decoder_thread_info_templateC1Ev, symObjAddr: 0xA7B4, symBinAddr: 0x45EFC, symSize: 0x2C }
  - { offsetInCU: 0x76B9, offset: 0x55746, size: 0x8, addend: 0x0, symName: __ZN2bq27appender_decoder_compressed28decoder_thread_info_templateC2Ev, symObjAddr: 0xA7E0, symBinAddr: 0x45F28, symSize: 0x30 }
  - { offsetInCU: 0x26, offset: 0x5585E, size: 0x8, addend: 0x0, symName: __ZN2bq23appender_decoder_helper6decodeERKNS_11string_baseIcEES4_, symObjAddr: 0x0, symBinAddr: 0x45F58, symSize: 0x420 }
  - { offsetInCU: 0xEE7, offset: 0x5671F, size: 0x8, addend: 0x0, symName: __ZN2bq23appender_decoder_helper6decodeERKNS_11string_baseIcEES4_, symObjAddr: 0x0, symBinAddr: 0x45F58, symSize: 0x420 }
  - { offsetInCU: 0x26, offset: 0x56910, size: 0x8, addend: 0x0, symName: __ZN2bq24appender_decoder_managerC2Ev, symObjAddr: 0x0, symBinAddr: 0x46378, symSize: 0x60 }
  - { offsetInCU: 0x26E9, offset: 0x58FD3, size: 0x8, addend: 0x0, symName: __ZN2bq11make_uniqueINS_20appender_decoder_rawEJEEENS_10unique_ptrIT_EEDpOT0_, symObjAddr: 0x7CC, symBinAddr: 0x46AD4, symSize: 0x4C }
  - { offsetInCU: 0x2717, offset: 0x59001, size: 0x8, addend: 0x0, symName: __ZN2bq11make_uniqueINS_27appender_decoder_compressedEJEEENS_10unique_ptrIT_EEDpOT0_, symObjAddr: 0x8B0, symBinAddr: 0x46BB8, symSize: 0x4C }
  - { offsetInCU: 0x2745, offset: 0x5902F, size: 0x8, addend: 0x0, symName: __ZN2bq4moveIRNS_10unique_ptrINS_21appender_decoder_baseEEEEEONS_16remove_referenceIT_E4typeEOS6_, symObjAddr: 0xA54, symBinAddr: 0x46D28, symSize: 0x14 }
  - { offsetInCU: 0x277A, offset: 0x59064, size: 0x8, addend: 0x0, symName: __ZN2bqneIjNS_10unique_ptrINS_21appender_decoder_baseEEELb0ELb0EEEbRKNS_17hash_map_iteratorIT_T0_XT1_EEERKNS4_IS5_S6_XT2_EEE, symObjAddr: 0xD50, symBinAddr: 0x46FCC, symSize: 0x34 }
  - { offsetInCU: 0x27DA, offset: 0x590C4, size: 0x8, addend: 0x0, symName: __ZN2bq22__inner_hash_calculateIjyEENS_9enable_ifIXntoosr2bq7is_sameIT_fEE5valuesr2bq7is_sameIS2_dEE5valueET0_E4typeERKS2_, symObjAddr: 0x1B94, symBinAddr: 0x47B44, symSize: 0x24 }
  - { offsetInCU: 0x28A1, offset: 0x5918B, size: 0x8, addend: 0x0, symName: __ZN2bq7forwardINS_10unique_ptrINS_21appender_decoder_baseEEEEEOT_RNS_16remove_referenceIS4_E4typeE, symObjAddr: 0x3D9C, symBinAddr: 0x48A20, symSize: 0x14 }
  - { offsetInCU: 0x28D6, offset: 0x591C0, size: 0x8, addend: 0x0, symName: __ZN2bq7forwardIRKjEEOT_RNS_16remove_referenceIS3_E4typeE, symObjAddr: 0x40A8, symBinAddr: 0x48C58, symSize: 0x14 }
  - { offsetInCU: 0x290B, offset: 0x591F5, size: 0x8, addend: 0x0, symName: __ZN2bqeqIjNS_10unique_ptrINS_21appender_decoder_baseEEELb0ELb0EEEbRKNS_17hash_map_iteratorIT_T0_XT1_EEERKNS4_IS5_S6_XT2_EEE, symObjAddr: 0x44BC, symBinAddr: 0x4906C, symSize: 0xE4 }
  - { offsetInCU: 0x2CF6, offset: 0x595E0, size: 0x8, addend: 0x0, symName: __ZN2bq24appender_decoder_manager8instanceEv, symObjAddr: 0x184, symBinAddr: 0x464FC, symSize: 0x98 }
  - { offsetInCU: 0x2D17, offset: 0x59601, size: 0x8, addend: 0x0, symName: __ZZN2bq24appender_decoder_manager8instanceEvE4inst, symObjAddr: 0x29B68, symBinAddr: 0x68C00, symSize: 0x0 }
  - { offsetInCU: 0x2D26, offset: 0x59610, size: 0x8, addend: 0x0, symName: __ZN2bq8hash_mapIjNS_10unique_ptrINS_21appender_decoder_baseEEEE12expand_nodesEj, symObjAddr: 0x1624, symBinAddr: 0x47658, symSize: 0x2C0 }
  - { offsetInCU: 0x3416, offset: 0x59D00, size: 0x8, addend: 0x0, symName: __ZN2bq24appender_decoder_managerC2Ev, symObjAddr: 0x0, symBinAddr: 0x46378, symSize: 0x60 }
  - { offsetInCU: 0x3440, offset: 0x59D2A, size: 0x8, addend: 0x0, symName: __ZN2bq8platform6atomicIjEC1ERKj, symObjAddr: 0x60, symBinAddr: 0x463D8, symSize: 0x34 }
  - { offsetInCU: 0x3476, offset: 0x59D60, size: 0x8, addend: 0x0, symName: __ZN2bq8hash_mapIjNS_10unique_ptrINS_21appender_decoder_baseEEEEC1Ej, symObjAddr: 0x94, symBinAddr: 0x4640C, symSize: 0x34 }
  - { offsetInCU: 0x34AE, offset: 0x59D98, size: 0x8, addend: 0x0, symName: __ZN2bq24appender_decoder_managerC1Ev, symObjAddr: 0xC8, symBinAddr: 0x46440, symSize: 0x2C }
  - { offsetInCU: 0x34D8, offset: 0x59DC2, size: 0x8, addend: 0x0, symName: __ZN2bq24appender_decoder_managerD2Ev, symObjAddr: 0xF4, symBinAddr: 0x4646C, symSize: 0x38 }
  - { offsetInCU: 0x3502, offset: 0x59DEC, size: 0x8, addend: 0x0, symName: __ZN2bq8hash_mapIjNS_10unique_ptrINS_21appender_decoder_baseEEEED1Ev, symObjAddr: 0x12C, symBinAddr: 0x464A4, symSize: 0x2C }
  - { offsetInCU: 0x352C, offset: 0x59E16, size: 0x8, addend: 0x0, symName: __ZN2bq24appender_decoder_managerD1Ev, symObjAddr: 0x158, symBinAddr: 0x464D0, symSize: 0x2C }
  - { offsetInCU: 0x35B4, offset: 0x59E9E, size: 0x8, addend: 0x0, symName: __ZN2bq24appender_decoder_manager14create_decoderERKNS_11string_baseIcEERj, symObjAddr: 0x21C, symBinAddr: 0x46594, symSize: 0x50C }
  - { offsetInCU: 0x36BF, offset: 0x59FA9, size: 0x8, addend: 0x0, symName: __ZN2bq10unique_ptrINS_21appender_decoder_baseEEC1EPS1_, symObjAddr: 0x798, symBinAddr: 0x46AA0, symSize: 0x34 }
  - { offsetInCU: 0x36FA, offset: 0x59FE4, size: 0x8, addend: 0x0, symName: __ZN2bq10unique_ptrINS_21appender_decoder_baseEEaSINS_20appender_decoder_rawEEERS2_ONS0_IT_EE, symObjAddr: 0x818, symBinAddr: 0x46B20, symSize: 0x6C }
  - { offsetInCU: 0x3736, offset: 0x5A020, size: 0x8, addend: 0x0, symName: __ZN2bq10unique_ptrINS_20appender_decoder_rawEED1Ev, symObjAddr: 0x884, symBinAddr: 0x46B8C, symSize: 0x2C }
  - { offsetInCU: 0x3763, offset: 0x5A04D, size: 0x8, addend: 0x0, symName: __ZN2bq10unique_ptrINS_21appender_decoder_baseEEaSINS_27appender_decoder_compressedEEERS2_ONS0_IT_EE, symObjAddr: 0x8FC, symBinAddr: 0x46C04, symSize: 0x6C }
  - { offsetInCU: 0x379F, offset: 0x5A089, size: 0x8, addend: 0x0, symName: __ZN2bq10unique_ptrINS_27appender_decoder_compressedEED1Ev, symObjAddr: 0x968, symBinAddr: 0x46C70, symSize: 0x2C }
  - { offsetInCU: 0x37C7, offset: 0x5A0B1, size: 0x8, addend: 0x0, symName: __ZN2bq10unique_ptrINS_21appender_decoder_baseEEptEv, symObjAddr: 0x994, symBinAddr: 0x46C9C, symSize: 0x18 }
  - { offsetInCU: 0x37F0, offset: 0x5A0DA, size: 0x8, addend: 0x0, symName: __ZN2bq8hash_mapIjNS_10unique_ptrINS_21appender_decoder_baseEEEE3addIS3_EENS_17hash_map_iteratorIjS3_Lb0EEERKjOT_, symObjAddr: 0x9E0, symBinAddr: 0x46CB4, symSize: 0x74 }
  - { offsetInCU: 0x3849, offset: 0x5A133, size: 0x8, addend: 0x0, symName: __ZN2bq10unique_ptrINS_21appender_decoder_baseEED1Ev, symObjAddr: 0xA94, symBinAddr: 0x46D3C, symSize: 0x2C }
  - { offsetInCU: 0x3871, offset: 0x5A15B, size: 0x8, addend: 0x0, symName: __ZN2bq24appender_decoder_manager15destroy_decoderEj, symObjAddr: 0xAEC, symBinAddr: 0x46D68, symSize: 0x54 }
  - { offsetInCU: 0x38B3, offset: 0x5A19D, size: 0x8, addend: 0x0, symName: __ZN2bq8hash_mapIjNS_10unique_ptrINS_21appender_decoder_baseEEEE5eraseERKj, symObjAddr: 0xB40, symBinAddr: 0x46DBC, symSize: 0x90 }
  - { offsetInCU: 0x38F7, offset: 0x5A1E1, size: 0x8, addend: 0x0, symName: __ZN2bq24appender_decoder_manager18decode_single_itemEjRPKNS_11string_baseIcEE, symObjAddr: 0xBD0, symBinAddr: 0x46E4C, symSize: 0x10C }
  - { offsetInCU: 0x3971, offset: 0x5A25B, size: 0x8, addend: 0x0, symName: __ZN2bq8hash_mapIjNS_10unique_ptrINS_21appender_decoder_baseEEEE4findERKj, symObjAddr: 0xCDC, symBinAddr: 0x46F58, symSize: 0x74 }
  - { offsetInCU: 0x39B3, offset: 0x5A29D, size: 0x8, addend: 0x0, symName: __ZN2bq8hash_mapIjNS_10unique_ptrINS_21appender_decoder_baseEEEE3endEv, symObjAddr: 0xD84, symBinAddr: 0x47000, symSize: 0x38 }
  - { offsetInCU: 0x39DA, offset: 0x5A2C4, size: 0x8, addend: 0x0, symName: __ZN2bq17hash_map_iteratorIjNS_10unique_ptrINS_21appender_decoder_baseEEELb0EEptEv, symObjAddr: 0xDBC, symBinAddr: 0x47038, symSize: 0x34 }
  - { offsetInCU: 0x3A00, offset: 0x5A2EA, size: 0x8, addend: 0x0, symName: __ZN2bq7kv_pairIjNS_10unique_ptrINS_21appender_decoder_baseEEEE5valueEv, symObjAddr: 0xDF0, symBinAddr: 0x4706C, symSize: 0x18 }
  - { offsetInCU: 0x3A24, offset: 0x5A30E, size: 0x8, addend: 0x0, symName: __ZNK2bq21appender_decoder_base20get_decoded_log_textEv, symObjAddr: 0xE08, symBinAddr: 0x47084, symSize: 0x18 }
  - { offsetInCU: 0x3A48, offset: 0x5A332, size: 0x8, addend: 0x0, symName: __ZN2bq8platform6atomicIjEC2ERKj, symObjAddr: 0x1068, symBinAddr: 0x4709C, symSize: 0x34 }
  - { offsetInCU: 0x3A7E, offset: 0x5A368, size: 0x8, addend: 0x0, symName: __ZN2bq8platform12_atomic_baseIjLm4EEC2ERKj, symObjAddr: 0x109C, symBinAddr: 0x470D0, symSize: 0x24 }
  - { offsetInCU: 0x3AB4, offset: 0x5A39E, size: 0x8, addend: 0x0, symName: __ZN2bq8hash_mapIjNS_10unique_ptrINS_21appender_decoder_baseEEEEC2Ej, symObjAddr: 0x10C0, symBinAddr: 0x470F4, symSize: 0x78 }
  - { offsetInCU: 0x3AEC, offset: 0x5A3D6, size: 0x8, addend: 0x0, symName: __ZN2bq8hash_mapIjNS_10unique_ptrINS_21appender_decoder_baseEEEE22value_node_buffer_headIjEC1Ev, symObjAddr: 0x1138, symBinAddr: 0x4716C, symSize: 0x2C }
  - { offsetInCU: 0x3B14, offset: 0x5A3FE, size: 0x8, addend: 0x0, symName: __ZN2bq8hash_mapIjNS_10unique_ptrINS_21appender_decoder_baseEEEE22value_node_buffer_headINS4_10value_nodeEEC1Ev, symObjAddr: 0x1164, symBinAddr: 0x47198, symSize: 0x2C }
  - { offsetInCU: 0x3B3C, offset: 0x5A426, size: 0x8, addend: 0x0, symName: __ZN2bq8hash_mapIjNS_10unique_ptrINS_21appender_decoder_baseEEEE14expand_bucketsEj, symObjAddr: 0x1190, symBinAddr: 0x471C4, symSize: 0x494 }
  - { offsetInCU: 0x3C41, offset: 0x5A52B, size: 0x8, addend: 0x0, symName: __ZNK2bq8hash_mapIjNS_10unique_ptrINS_21appender_decoder_baseEEEE12buckets_sizeEv, symObjAddr: 0x18E4, symBinAddr: 0x47918, symSize: 0x24 }
  - { offsetInCU: 0x3C67, offset: 0x5A551, size: 0x8, addend: 0x0, symName: __ZN2bq8hash_mapIjNS_10unique_ptrINS_21appender_decoder_baseEEEE22value_node_buffer_headIjEC2Ev, symObjAddr: 0x1908, symBinAddr: 0x4793C, symSize: 0x1C }
  - { offsetInCU: 0x3C8F, offset: 0x5A579, size: 0x8, addend: 0x0, symName: __ZN2bq8hash_mapIjNS_10unique_ptrINS_21appender_decoder_baseEEEE22value_node_buffer_headINS4_10value_nodeEEC2Ev, symObjAddr: 0x1924, symBinAddr: 0x47958, symSize: 0x1C }
  - { offsetInCU: 0x3CB7, offset: 0x5A5A1, size: 0x8, addend: 0x0, symName: __ZNK2bq8hash_mapIjNS_10unique_ptrINS_21appender_decoder_baseEEEE22value_node_buffer_headIjE4sizeEv, symObjAddr: 0x19C4, symBinAddr: 0x47974, symSize: 0x18 }
  - { offsetInCU: 0x3CDB, offset: 0x5A5C5, size: 0x8, addend: 0x0, symName: __ZN2bq8hash_mapIjNS_10unique_ptrINS_21appender_decoder_baseEEEE22value_node_buffer_headIjEixEj, symObjAddr: 0x19DC, symBinAddr: 0x4798C, symSize: 0x74 }
  - { offsetInCU: 0x3D0D, offset: 0x5A5F7, size: 0x8, addend: 0x0, symName: __ZN2bq8hash_mapIjNS_10unique_ptrINS_21appender_decoder_baseEEEE22value_node_buffer_headINS4_10value_nodeEEixEj, symObjAddr: 0x1A50, symBinAddr: 0x47A00, symSize: 0x74 }
  - { offsetInCU: 0x3D3F, offset: 0x5A629, size: 0x8, addend: 0x0, symName: __ZNK2bq8hash_mapIjNS_10unique_ptrINS_21appender_decoder_baseEEEE23get_bucket_index_by_keyERKj, symObjAddr: 0x1AC4, symBinAddr: 0x47A74, symSize: 0x44 }
  - { offsetInCU: 0x3D84, offset: 0x5A66E, size: 0x8, addend: 0x0, symName: __ZNK2bq7kv_pairIjNS_10unique_ptrINS_21appender_decoder_baseEEEE3keyEv, symObjAddr: 0x1B08, symBinAddr: 0x47AB8, symSize: 0x14 }
  - { offsetInCU: 0x3DA8, offset: 0x5A692, size: 0x8, addend: 0x0, symName: __ZNK2bq8hash_mapIjNS_10unique_ptrINS_21appender_decoder_baseEEEE4sizeEv, symObjAddr: 0x1B1C, symBinAddr: 0x47ACC, symSize: 0x18 }
  - { offsetInCU: 0x3DCE, offset: 0x5A6B8, size: 0x8, addend: 0x0, symName: __ZN2bq27number_type_hash_calculatorIjE9hash_codeERKj, symObjAddr: 0x1B34, symBinAddr: 0x47AE4, symSize: 0x24 }
  - { offsetInCU: 0x3DF0, offset: 0x5A6DA, size: 0x8, addend: 0x0, symName: __ZNK2bq8hash_mapIjNS_10unique_ptrINS_21appender_decoder_baseEEEE24get_bucket_index_by_hashEy, symObjAddr: 0x1B58, symBinAddr: 0x47B08, symSize: 0x3C }
  - { offsetInCU: 0x3E26, offset: 0x5A710, size: 0x8, addend: 0x0, symName: __ZN2bq28integer_type_hash_calculatorIjE9hash_codeERKj, symObjAddr: 0x1BB8, symBinAddr: 0x47B68, symSize: 0x1C }
  - { offsetInCU: 0x3E48, offset: 0x5A732, size: 0x8, addend: 0x0, symName: __ZNK2bq8hash_mapIjNS_10unique_ptrINS_21appender_decoder_baseEEEE22value_node_buffer_headINS4_10value_nodeEE4sizeEv, symObjAddr: 0x1BD4, symBinAddr: 0x47B84, symSize: 0x18 }
  - { offsetInCU: 0x3E6C, offset: 0x5A756, size: 0x8, addend: 0x0, symName: __ZN2bq8hash_mapIjNS_10unique_ptrINS_21appender_decoder_baseEEEE5beginEv, symObjAddr: 0x1BEC, symBinAddr: 0x47B9C, symSize: 0x84 }
  - { offsetInCU: 0x3E93, offset: 0x5A77D, size: 0x8, addend: 0x0, symName: __ZN2bq17hash_map_iteratorIjNS_10unique_ptrINS_21appender_decoder_baseEEELb0EEdeEv, symObjAddr: 0x1CA0, symBinAddr: 0x47C20, symSize: 0x34 }
  - { offsetInCU: 0x3EB9, offset: 0x5A7A3, size: 0x8, addend: 0x0, symName: __ZN2bq10unique_ptrINS_21appender_decoder_baseEEC1IS1_EEONS0_IT_EE, symObjAddr: 0x1CD4, symBinAddr: 0x47C54, symSize: 0x34 }
  - { offsetInCU: 0x3EF8, offset: 0x5A7E2, size: 0x8, addend: 0x0, symName: __ZN2bq8hash_mapIjNS_10unique_ptrINS_21appender_decoder_baseEEEE8destructERNS_17hash_map_iteratorIjS3_Lb0EEE, symObjAddr: 0x1D08, symBinAddr: 0x47C88, symSize: 0x3C }
  - { offsetInCU: 0x3F2E, offset: 0x5A818, size: 0x8, addend: 0x0, symName: __ZN2bq17hash_map_iteratorIjNS_10unique_ptrINS_21appender_decoder_baseEEELb0EEppEv, symObjAddr: 0x1D44, symBinAddr: 0x47CC4, symSize: 0x88 }
  - { offsetInCU: 0x3F54, offset: 0x5A83E, size: 0x8, addend: 0x0, symName: __ZN2bq17hash_map_iteratorIjNS_10unique_ptrINS_21appender_decoder_baseEEELb0EEC1EPNS_8hash_mapIjS3_EEjj, symObjAddr: 0x1DCC, symBinAddr: 0x47D4C, symSize: 0x44 }
  - { offsetInCU: 0x3FA6, offset: 0x5A890, size: 0x8, addend: 0x0, symName: __ZN2bq17hash_map_iteratorIjNS_10unique_ptrINS_21appender_decoder_baseEEELb0EEC2EPNS_8hash_mapIjS3_EEjj, symObjAddr: 0x1E10, symBinAddr: 0x47D90, symSize: 0x38 }
  - { offsetInCU: 0x3FF8, offset: 0x5A8E2, size: 0x8, addend: 0x0, symName: __ZN2bq10unique_ptrINS_21appender_decoder_baseEEC2IS1_EEONS0_IT_EE, symObjAddr: 0x1E48, symBinAddr: 0x47DC8, symSize: 0x2C }
  - { offsetInCU: 0x4037, offset: 0x5A921, size: 0x8, addend: 0x0, symName: __ZN2bq8hash_mapIjNS_10unique_ptrINS_21appender_decoder_baseEEEE12destruct_keyERNS_17hash_map_iteratorIjS3_Lb0EEE, symObjAddr: 0x1E74, symBinAddr: 0x47DF4, symSize: 0x2C }
  - { offsetInCU: 0x406D, offset: 0x5A957, size: 0x8, addend: 0x0, symName: __ZN2bq8hash_mapIjNS_10unique_ptrINS_21appender_decoder_baseEEEE14destruct_valueERNS_17hash_map_iteratorIjS3_Lb0EEE, symObjAddr: 0x1EA0, symBinAddr: 0x47E20, symSize: 0x30 }
  - { offsetInCU: 0x40A7, offset: 0x5A991, size: 0x8, addend: 0x0, symName: __ZN2bq17object_destructorINS_10unique_ptrINS_21appender_decoder_baseEEEE8destructEPS3_, symObjAddr: 0x1F04, symBinAddr: 0x47E50, symSize: 0x24 }
  - { offsetInCU: 0x40C9, offset: 0x5A9B3, size: 0x8, addend: 0x0, symName: __ZN2bq17object_destructorINS_10unique_ptrINS_21appender_decoder_baseEEEE15destructor_implIS3_NS4_27non_trivial_destructor_typeEE8destructEPS3_, symObjAddr: 0x1F28, symBinAddr: 0x47E74, symSize: 0x3C }
  - { offsetInCU: 0x40EB, offset: 0x5A9D5, size: 0x8, addend: 0x0, symName: __ZNK2bq8hash_mapIjNS_10unique_ptrINS_21appender_decoder_baseEEEE19get_next_node_indexEj, symObjAddr: 0x1F64, symBinAddr: 0x47EB0, symSize: 0x68 }
  - { offsetInCU: 0x4121, offset: 0x5AA0B, size: 0x8, addend: 0x0, symName: __ZNK2bq8hash_mapIjNS_10unique_ptrINS_21appender_decoder_baseEEEE22value_node_buffer_headINS4_10value_nodeEEixEj, symObjAddr: 0x1FCC, symBinAddr: 0x47F18, symSize: 0x74 }
  - { offsetInCU: 0x4153, offset: 0x5AA3D, size: 0x8, addend: 0x0, symName: __ZN2bq8hash_mapIjNS_10unique_ptrINS_21appender_decoder_baseEEEED2Ev, symObjAddr: 0x2040, symBinAddr: 0x47F8C, symSize: 0x2C }
  - { offsetInCU: 0x417D, offset: 0x5AA67, size: 0x8, addend: 0x0, symName: __ZN2bq8hash_mapIjNS_10unique_ptrINS_21appender_decoder_baseEEEE5resetEv, symObjAddr: 0x206C, symBinAddr: 0x47FB8, symSize: 0xF8 }
  - { offsetInCU: 0x41C1, offset: 0x5AAAB, size: 0x8, addend: 0x0, symName: __ZN2bq10unique_ptrINS_21appender_decoder_baseEEC2EPS1_, symObjAddr: 0x2164, symBinAddr: 0x480B0, symSize: 0x20 }
  - { offsetInCU: 0x41F7, offset: 0x5AAE1, size: 0x8, addend: 0x0, symName: __ZN2bq10unique_ptrINS_21appender_decoder_baseEED2Ev, symObjAddr: 0x2184, symBinAddr: 0x480D0, symSize: 0x2C }
  - { offsetInCU: 0x421F, offset: 0x5AB09, size: 0x8, addend: 0x0, symName: __ZN2bq10unique_ptrINS_21appender_decoder_baseEE5resetEv, symObjAddr: 0x21B0, symBinAddr: 0x480FC, symSize: 0x74 }
  - { offsetInCU: 0x4243, offset: 0x5AB2D, size: 0x8, addend: 0x0, symName: __ZN2bq20appender_decoder_rawC1Ev, symObjAddr: 0x2224, symBinAddr: 0x48170, symSize: 0x2C }
  - { offsetInCU: 0x426D, offset: 0x5AB57, size: 0x8, addend: 0x0, symName: __ZN2bq10unique_ptrINS_20appender_decoder_rawEEC1EPS1_, symObjAddr: 0x2250, symBinAddr: 0x4819C, symSize: 0x34 }
  - { offsetInCU: 0x42A3, offset: 0x5AB8D, size: 0x8, addend: 0x0, symName: __ZN2bq20appender_decoder_rawC2Ev, symObjAddr: 0x2284, symBinAddr: 0x481D0, symSize: 0x44 }
  - { offsetInCU: 0x42CD, offset: 0x5ABB7, size: 0x8, addend: 0x0, symName: __ZN2bq21appender_decoder_baseC2Ev, symObjAddr: 0x22C8, symBinAddr: 0x48214, symSize: 0x7C }
  - { offsetInCU: 0x42F7, offset: 0x5ABE1, size: 0x8, addend: 0x0, symName: __ZN2bq5arrayIhLm0EEC1Ev, symObjAddr: 0x23C8, symBinAddr: 0x48290, symSize: 0x2C }
  - { offsetInCU: 0x4321, offset: 0x5AC0B, size: 0x8, addend: 0x0, symName: __ZN2bq5arrayIhLm0EEC2Ev, symObjAddr: 0x24F0, symBinAddr: 0x482BC, symSize: 0x20 }
  - { offsetInCU: 0x434B, offset: 0x5AC35, size: 0x8, addend: 0x0, symName: __ZN2bq10unique_ptrINS_20appender_decoder_rawEEC2EPS1_, symObjAddr: 0x2510, symBinAddr: 0x482DC, symSize: 0x20 }
  - { offsetInCU: 0x4381, offset: 0x5AC6B, size: 0x8, addend: 0x0, symName: __ZN2bq10unique_ptrINS_20appender_decoder_rawEED2Ev, symObjAddr: 0x2530, symBinAddr: 0x482FC, symSize: 0x2C }
  - { offsetInCU: 0x43A9, offset: 0x5AC93, size: 0x8, addend: 0x0, symName: __ZN2bq10unique_ptrINS_20appender_decoder_rawEE5resetEv, symObjAddr: 0x255C, symBinAddr: 0x48328, symSize: 0x74 }
  - { offsetInCU: 0x43CD, offset: 0x5ACB7, size: 0x8, addend: 0x0, symName: __ZN2bq27appender_decoder_compressedC1Ev, symObjAddr: 0x25D0, symBinAddr: 0x4839C, symSize: 0x2C }
  - { offsetInCU: 0x43F7, offset: 0x5ACE1, size: 0x8, addend: 0x0, symName: __ZN2bq10unique_ptrINS_27appender_decoder_compressedEEC1EPS1_, symObjAddr: 0x25FC, symBinAddr: 0x483C8, symSize: 0x34 }
  - { offsetInCU: 0x442D, offset: 0x5AD17, size: 0x8, addend: 0x0, symName: __ZN2bq27appender_decoder_compressedC2Ev, symObjAddr: 0x2630, symBinAddr: 0x483FC, symSize: 0x6C }
  - { offsetInCU: 0x4457, offset: 0x5AD41, size: 0x8, addend: 0x0, symName: __ZN2bq5arrayINS_27appender_decoder_compressed20decoder_log_templateELm0EEC1Ev, symObjAddr: 0x269C, symBinAddr: 0x48468, symSize: 0x2C }
  - { offsetInCU: 0x4481, offset: 0x5AD6B, size: 0x8, addend: 0x0, symName: __ZN2bq8hash_mapIyNS_27appender_decoder_compressed28decoder_thread_info_templateEEC1Ej, symObjAddr: 0x26C8, symBinAddr: 0x48494, symSize: 0x34 }
  - { offsetInCU: 0x44B9, offset: 0x5ADA3, size: 0x8, addend: 0x0, symName: __ZN2bq5arrayINS_27appender_decoder_compressed20decoder_log_templateELm0EEC2Ev, symObjAddr: 0x26FC, symBinAddr: 0x484C8, symSize: 0x20 }
  - { offsetInCU: 0x44E3, offset: 0x5ADCD, size: 0x8, addend: 0x0, symName: __ZN2bq8hash_mapIyNS_27appender_decoder_compressed28decoder_thread_info_templateEEC2Ej, symObjAddr: 0x271C, symBinAddr: 0x484E8, symSize: 0x78 }
  - { offsetInCU: 0x451B, offset: 0x5AE05, size: 0x8, addend: 0x0, symName: __ZN2bq8hash_mapIyNS_27appender_decoder_compressed28decoder_thread_info_templateEE22value_node_buffer_headIjEC1Ev, symObjAddr: 0x2794, symBinAddr: 0x48560, symSize: 0x2C }
  - { offsetInCU: 0x4543, offset: 0x5AE2D, size: 0x8, addend: 0x0, symName: __ZN2bq8hash_mapIyNS_27appender_decoder_compressed28decoder_thread_info_templateEE22value_node_buffer_headINS3_10value_nodeEEC1Ev, symObjAddr: 0x27C0, symBinAddr: 0x4858C, symSize: 0x2C }
  - { offsetInCU: 0x456B, offset: 0x5AE55, size: 0x8, addend: 0x0, symName: __ZN2bq8hash_mapIyNS_27appender_decoder_compressed28decoder_thread_info_templateEE22value_node_buffer_headIjEC2Ev, symObjAddr: 0x2F94, symBinAddr: 0x485B8, symSize: 0x1C }
  - { offsetInCU: 0x4593, offset: 0x5AE7D, size: 0x8, addend: 0x0, symName: __ZN2bq8hash_mapIyNS_27appender_decoder_compressed28decoder_thread_info_templateEE22value_node_buffer_headINS3_10value_nodeEEC2Ev, symObjAddr: 0x2FB0, symBinAddr: 0x485D4, symSize: 0x1C }
  - { offsetInCU: 0x45C5, offset: 0x5AEAF, size: 0x8, addend: 0x0, symName: __ZN2bq10unique_ptrINS_27appender_decoder_compressedEEC2EPS1_, symObjAddr: 0x396C, symBinAddr: 0x485F0, symSize: 0x20 }
  - { offsetInCU: 0x45FB, offset: 0x5AEE5, size: 0x8, addend: 0x0, symName: __ZN2bq10unique_ptrINS_27appender_decoder_compressedEED2Ev, symObjAddr: 0x398C, symBinAddr: 0x48610, symSize: 0x2C }
  - { offsetInCU: 0x4623, offset: 0x5AF0D, size: 0x8, addend: 0x0, symName: __ZN2bq10unique_ptrINS_27appender_decoder_compressedEE5resetEv, symObjAddr: 0x39B8, symBinAddr: 0x4863C, symSize: 0x74 }
  - { offsetInCU: 0x4647, offset: 0x5AF31, size: 0x8, addend: 0x0, symName: __ZN2bq8hash_mapIjNS_10unique_ptrINS_21appender_decoder_baseEEEE17alloc_node_by_keyERKj, symObjAddr: 0x3A2C, symBinAddr: 0x486B0, symSize: 0x304 }
  - { offsetInCU: 0x473F, offset: 0x5B029, size: 0x8, addend: 0x0, symName: __ZN2bq8hash_mapIjNS_10unique_ptrINS_21appender_decoder_baseEEEE15construct_valueIS3_EEvRNS_17hash_map_iteratorIjS3_Lb0EEEOT_, symObjAddr: 0x3D30, symBinAddr: 0x489B4, symSize: 0x6C }
  - { offsetInCU: 0x478B, offset: 0x5B075, size: 0x8, addend: 0x0, symName: __ZNK2bq8hash_mapIjNS_10unique_ptrINS_21appender_decoder_baseEEEE32find_index_and_bucket_idx_by_keyERKj, symObjAddr: 0x3DB0, symBinAddr: 0x48A34, symSize: 0x120 }
  - { offsetInCU: 0x4819, offset: 0x5B103, size: 0x8, addend: 0x0, symName: __ZNK2bq8hash_mapIjNS_10unique_ptrINS_21appender_decoder_baseEEEE10nodes_sizeEv, symObjAddr: 0x3EFC, symBinAddr: 0x48B54, symSize: 0x28 }
  - { offsetInCU: 0x483F, offset: 0x5B129, size: 0x8, addend: 0x0, symName: __ZN2bq8hash_mapIjNS_10unique_ptrINS_21appender_decoder_baseEEEE13construct_keyIRKjEEvRNS_17hash_map_iteratorIjS3_Lb0EEEOT_, symObjAddr: 0x3F24, symBinAddr: 0x48B7C, symSize: 0x68 }
  - { offsetInCU: 0x488B, offset: 0x5B175, size: 0x8, addend: 0x0, symName: __ZNK2bq8hash_mapIjNS_10unique_ptrINS_21appender_decoder_baseEEEE22value_node_buffer_headIjEixEj, symObjAddr: 0x3F8C, symBinAddr: 0x48BE4, symSize: 0x74 }
  - { offsetInCU: 0x48BD, offset: 0x5B1A7, size: 0x8, addend: 0x0, symName: __ZNK2bq17hash_map_iteratorIjNS_10unique_ptrINS_21appender_decoder_baseEEELb0EEcvbEv, symObjAddr: 0x40BC, symBinAddr: 0x48C6C, symSize: 0x44 }
  - { offsetInCU: 0x48E3, offset: 0x5B1CD, size: 0x8, addend: 0x0, symName: __ZN2bq8hash_mapIjNS_10unique_ptrINS_21appender_decoder_baseEEEE5eraseENS_17hash_map_iteratorIjS3_Lb0EEE, symObjAddr: 0x4100, symBinAddr: 0x48CB0, symSize: 0x228 }
  - { offsetInCU: 0x4954, offset: 0x5B23E, size: 0x8, addend: 0x0, symName: __ZNK2bq8hash_mapIjNS_10unique_ptrINS_21appender_decoder_baseEEEE20iterator_legal_checkERKNS_17hash_map_iteratorIjS3_Lb1EEE, symObjAddr: 0x4328, symBinAddr: 0x48ED8, symSize: 0x124 }
  - { offsetInCU: 0x498E, offset: 0x5B278, size: 0x8, addend: 0x0, symName: __ZN2bq17hash_map_iteratorIjNS_10unique_ptrINS_21appender_decoder_baseEEELb1EEC1ILb0EEERKNS0_IjS3_XT_EEE, symObjAddr: 0x444C, symBinAddr: 0x48FFC, symSize: 0x34 }
  - { offsetInCU: 0x49CE, offset: 0x5B2B8, size: 0x8, addend: 0x0, symName: __ZN2bq17hash_map_iteratorIjNS_10unique_ptrINS_21appender_decoder_baseEEELb1EEC2ILb0EEERKNS0_IjS3_XT_EEE, symObjAddr: 0x4480, symBinAddr: 0x49030, symSize: 0x3C }
  - { offsetInCU: 0x26, offset: 0x5B378, size: 0x8, addend: 0x0, symName: __ZN2bq20appender_decoder_raw12init_privateEv, symObjAddr: 0x0, symBinAddr: 0x49150, symSize: 0x14 }
  - { offsetInCU: 0x1A18, offset: 0x5CD6A, size: 0x8, addend: 0x0, symName: __ZN2bq20appender_decoder_raw12init_privateEv, symObjAddr: 0x0, symBinAddr: 0x49150, symSize: 0x14 }
  - { offsetInCU: 0x1A6B, offset: 0x5CDBD, size: 0x8, addend: 0x0, symName: __ZN2bq20appender_decoder_raw14decode_privateEv, symObjAddr: 0x14, symBinAddr: 0x49164, symSize: 0x174 }
  - { offsetInCU: 0x1B4E, offset: 0x5CEA0, size: 0x8, addend: 0x0, symName: __ZNK2bq20appender_decoder_raw25get_binary_format_versionEv, symObjAddr: 0x23C, symBinAddr: 0x492D8, symSize: 0x14 }
  - { offsetInCU: 0x1B74, offset: 0x5CEC6, size: 0x8, addend: 0x0, symName: __ZN2bq20appender_decoder_rawD1Ev, symObjAddr: 0x250, symBinAddr: 0x492EC, symSize: 0x2C }
  - { offsetInCU: 0x1B9E, offset: 0x5CEF0, size: 0x8, addend: 0x0, symName: __ZN2bq20appender_decoder_rawD0Ev, symObjAddr: 0x27C, symBinAddr: 0x49318, symSize: 0x30 }
  - { offsetInCU: 0x1BC8, offset: 0x5CF1A, size: 0x8, addend: 0x0, symName: __ZN2bq20appender_decoder_rawD2Ev, symObjAddr: 0x2D8, symBinAddr: 0x49348, symSize: 0x2C }
  - { offsetInCU: 0x58, offset: 0x5CFA6, size: 0x8, addend: 0x0, symName: __ZN2bqL14_log_level_strE, symObjAddr: 0x20468, symBinAddr: 0x68C58, symSize: 0x0 }
  - { offsetInCU: 0x71, offset: 0x5CFBF, size: 0x8, addend: 0x0, symName: __ZN2bqL27_time_zone_str_initer_inst_E, symObjAddr: 0x204F8, symBinAddr: 0x68CE8, symSize: 0x0 }
  - { offsetInCU: 0xD1, offset: 0x5D01F, size: 0x8, addend: 0x0, symName: __ZN2bqL18_digit_str_initer_E, symObjAddr: 0x20530, symBinAddr: 0x68D20, symSize: 0x0 }
  - { offsetInCU: 0x1040, offset: 0x5DF8E, size: 0x8, addend: 0x0, symName: __ZN2bq8hash_mapIyNS_11string_baseIcEEE12expand_nodesEj, symObjAddr: 0x8368, symBinAddr: 0x50104, symSize: 0x2F0 }
  - { offsetInCU: 0x1653, offset: 0x5E5A1, size: 0x8, addend: 0x0, symName: __ZN2bq21_time_zone_str_initerC1Ev, symObjAddr: 0x60, symBinAddr: 0x49374, symSize: 0x2C }
  - { offsetInCU: 0x167B, offset: 0x5E5C9, size: 0x8, addend: 0x0, symName: __ZN2bq17_digit_str_initerC1Ev, symObjAddr: 0x8C, symBinAddr: 0x493A0, symSize: 0x2C }
  - { offsetInCU: 0x16A3, offset: 0x5E5F1, size: 0x8, addend: 0x0, symName: __ZN2bq6layoutC2Ev, symObjAddr: 0xB8, symBinAddr: 0x493CC, symSize: 0x88 }
  - { offsetInCU: 0x16CD, offset: 0x5E61B, size: 0x8, addend: 0x0, symName: __ZN2bq5arrayIcLm0EEC1Ev, symObjAddr: 0x140, symBinAddr: 0x49454, symSize: 0x2C }
  - { offsetInCU: 0x16F7, offset: 0x5E645, size: 0x8, addend: 0x0, symName: __ZN2bq8hash_mapIyNS_11string_baseIcEEEC1Ej, symObjAddr: 0x16C, symBinAddr: 0x49480, symSize: 0x34 }
  - { offsetInCU: 0x172F, offset: 0x5E67D, size: 0x8, addend: 0x0, symName: __ZN2bq6layout11format_infoC1Ev, symObjAddr: 0x1A0, symBinAddr: 0x494B4, symSize: 0x2C }
  - { offsetInCU: 0x1759, offset: 0x5E6A7, size: 0x8, addend: 0x0, symName: __ZN2bq8hash_mapIyNS_11string_baseIcEEE15set_expand_rateEf, symObjAddr: 0x1CC, symBinAddr: 0x494E0, symSize: 0x20 }
  - { offsetInCU: 0x178E, offset: 0x5E6DC, size: 0x8, addend: 0x0, symName: __ZN2bq6layoutC1Ev, symObjAddr: 0x1EC, symBinAddr: 0x49500, symSize: 0x2C }
  - { offsetInCU: 0x17E2, offset: 0x5E730, size: 0x8, addend: 0x0, symName: __ZN2bq6layout9do_layoutERKNS_16log_entry_handleEbPKNS_5arrayINS_11string_baseIcEELm0EEE, symObjAddr: 0x218, symBinAddr: 0x4952C, symSize: 0x150 }
  - { offsetInCU: 0x1892, offset: 0x5E7E0, size: 0x8, addend: 0x0, symName: __ZN2bq6layout13layout_prefixERKNS_16log_entry_handleE, symObjAddr: 0x368, symBinAddr: 0x4967C, symSize: 0x290 }
  - { offsetInCU: 0x19A0, offset: 0x5E8EE, size: 0x8, addend: 0x0, symName: __ZN2bq6layout27python_style_format_contentERKNS_16log_entry_handleE, symObjAddr: 0x5F8, symBinAddr: 0x4990C, symSize: 0xD0 }
  - { offsetInCU: 0x19F4, offset: 0x5E942, size: 0x8, addend: 0x0, symName: __ZN2bq6layout11insert_timeERKNS_16log_entry_handleE, symObjAddr: 0x6C8, symBinAddr: 0x499DC, symSize: 0x2EC }
  - { offsetInCU: 0x1AD6, offset: 0x5EA24, size: 0x8, addend: 0x0, symName: __ZN2bq6layout18insert_thread_infoERKNS_16log_entry_handleE, symObjAddr: 0x9B4, symBinAddr: 0x49CC8, symSize: 0x3A8 }
  - { offsetInCU: 0x1BC0, offset: 0x5EB0E, size: 0x8, addend: 0x0, symName: __ZN2bq6layout15insert_str_utf8EPKcj, symObjAddr: 0xD5C, symBinAddr: 0x4A070, symSize: 0x170 }
  - { offsetInCU: 0x1C2B, offset: 0x5EB79, size: 0x8, addend: 0x0, symName: __ZN2bq6layout11insert_charEc, symObjAddr: 0xF54, symBinAddr: 0x4A1E0, symSize: 0x118 }
  - { offsetInCU: 0x1C87, offset: 0x5EBD5, size: 0x8, addend: 0x0, symName: __ZN2bq8hash_mapIyNS_11string_baseIcEEE4findERKy, symObjAddr: 0x11A4, symBinAddr: 0x4A2F8, symSize: 0x74 }
  - { offsetInCU: 0x1CC9, offset: 0x5EC17, size: 0x8, addend: 0x0, symName: __ZN2bq8hash_mapIyNS_11string_baseIcEEE3addIS2_EENS_17hash_map_iteratorIyS2_Lb0EEERKyOT_, symObjAddr: 0x1334, symBinAddr: 0x4A36C, symSize: 0x74 }
  - { offsetInCU: 0x1D22, offset: 0x5EC70, size: 0x8, addend: 0x0, symName: __ZN2bq6layout18fill_and_alignmentEj, symObjAddr: 0x1408, symBinAddr: 0x4A3E0, symSize: 0x630 }
  - { offsetInCU: 0x1F5A, offset: 0x5EEA8, size: 0x8, addend: 0x0, symName: __ZN2bq6layout12fill_e_styleEjj, symObjAddr: 0x1A38, symBinAddr: 0x4AA10, symSize: 0x330 }
  - { offsetInCU: 0x2007, offset: 0x5EF55, size: 0x8, addend: 0x0, symName: __ZN2bq6layout7reverseEjj, symObjAddr: 0x1D68, symBinAddr: 0x4AD40, symSize: 0xDC }
  - { offsetInCU: 0x20A5, offset: 0x5EFF3, size: 0x8, addend: 0x0, symName: __ZN2bq6layout32python_style_format_content_utf8ERKNS_16log_entry_handleE, symObjAddr: 0x1E44, symBinAddr: 0x4AE1C, symSize: 0xB28 }
  - { offsetInCU: 0x23F2, offset: 0x5F340, size: 0x8, addend: 0x0, symName: __ZN2bq6layout33python_style_format_content_utf16ERKNS_16log_entry_handleE, symObjAddr: 0x29B8, symBinAddr: 0x4B990, symSize: 0xCB0 }
  - { offsetInCU: 0x271F, offset: 0x5F66D, size: 0x8, addend: 0x0, symName: __ZN2bq6layout11format_info5resetEv, symObjAddr: 0x36CC, symBinAddr: 0x4C68C, symSize: 0x50 }
  - { offsetInCU: 0x2743, offset: 0x5F691, size: 0x8, addend: 0x0, symName: __ZN2bq6layout14insert_pointerEPKv, symObjAddr: 0x371C, symBinAddr: 0x4C6DC, symSize: 0x260 }
  - { offsetInCU: 0x27FF, offset: 0x5F74D, size: 0x8, addend: 0x0, symName: __ZN2bq6layout11insert_boolEb, symObjAddr: 0x397C, symBinAddr: 0x4C93C, symSize: 0x254 }
  - { offsetInCU: 0x28BB, offset: 0x5F809, size: 0x8, addend: 0x0, symName: __ZN2bq6layout13insert_char16EDs, symObjAddr: 0x3BD0, symBinAddr: 0x4CB90, symSize: 0x34 }
  - { offsetInCU: 0x28F1, offset: 0x5F83F, size: 0x8, addend: 0x0, symName: __ZN2bq6layout13insert_char32EDi, symObjAddr: 0x3C04, symBinAddr: 0x4CBC4, symSize: 0x94 }
  - { offsetInCU: 0x2944, offset: 0x5F892, size: 0x8, addend: 0x0, symName: __ZN2bq6layout22insert_integral_signedExj, symObjAddr: 0x3C98, symBinAddr: 0x4CC58, symSize: 0x79C }
  - { offsetInCU: 0x2A42, offset: 0x5F990, size: 0x8, addend: 0x0, symName: __ZN2bq6layout24insert_integral_unsignedEyj, symObjAddr: 0x4434, symBinAddr: 0x4D3F4, symSize: 0x774 }
  - { offsetInCU: 0x2B40, offset: 0x5FA8E, size: 0x8, addend: 0x0, symName: __ZN2bq6layout14insert_decimalEf, symObjAddr: 0x4BA8, symBinAddr: 0x4DB68, symSize: 0x4D0 }
  - { offsetInCU: 0x2C5B, offset: 0x5FBA9, size: 0x8, addend: 0x0, symName: __ZN2bq6layout14insert_decimalEd, symObjAddr: 0x5078, symBinAddr: 0x4E038, symSize: 0x4F4 }
  - { offsetInCU: 0x2D88, offset: 0x5FCD6, size: 0x8, addend: 0x0, symName: __ZN2bq6layout16insert_str_utf16EPKcj, symObjAddr: 0x55B8, symBinAddr: 0x4E52C, symSize: 0x698 }
  - { offsetInCU: 0x2E4E, offset: 0x5FD9C, size: 0x8, addend: 0x0, symName: __ZN2bq6layout10c20_formatIcEENS0_11format_infoEPKT_i, symObjAddr: 0x5C50, symBinAddr: 0x4EBC4, symSize: 0x490 }
  - { offsetInCU: 0x2F09, offset: 0x5FE57, size: 0x8, addend: 0x0, symName: __Z7isdigiti, symObjAddr: 0x6238, symBinAddr: 0x4F1AC, symSize: 0x28 }
  - { offsetInCU: 0x2F35, offset: 0x5FE83, size: 0x8, addend: 0x0, symName: __ZN2bq6layout10c20_formatIDsEENS0_11format_infoEPKT_i, symObjAddr: 0x6288, symBinAddr: 0x4F1D4, symSize: 0x490 }
  - { offsetInCU: 0x2FF0, offset: 0x5FF3E, size: 0x8, addend: 0x0, symName: __ZN2bq21_time_zone_str_initerC2Ev, symObjAddr: 0x693C, symBinAddr: 0x4F7BC, symSize: 0x22C }
  - { offsetInCU: 0x308B, offset: 0x5FFD9, size: 0x8, addend: 0x0, symName: __ZN2bq17_digit_str_initerC2Ev, symObjAddr: 0x6B68, symBinAddr: 0x4F9E8, symSize: 0xC8 }
  - { offsetInCU: 0x30CF, offset: 0x6001D, size: 0x8, addend: 0x0, symName: __ZN2bq6layout11format_infoC2Ev, symObjAddr: 0x6C30, symBinAddr: 0x4FAB0, symSize: 0x50 }
  - { offsetInCU: 0x30F9, offset: 0x60047, size: 0x8, addend: 0x0, symName: __Z9__isctypeim, symObjAddr: 0x6C80, symBinAddr: 0x4FB00, symSize: 0x80 }
  - { offsetInCU: 0x3133, offset: 0x60081, size: 0x8, addend: 0x0, symName: __ZN2bq5arrayIcLm0EEC2Ev, symObjAddr: 0x7DE4, symBinAddr: 0x4FB80, symSize: 0x20 }
  - { offsetInCU: 0x315D, offset: 0x600AB, size: 0x8, addend: 0x0, symName: __ZN2bq8hash_mapIyNS_11string_baseIcEEEC2Ej, symObjAddr: 0x7E04, symBinAddr: 0x4FBA0, symSize: 0x78 }
  - { offsetInCU: 0x3195, offset: 0x600E3, size: 0x8, addend: 0x0, symName: __ZN2bq8hash_mapIyNS_11string_baseIcEEE22value_node_buffer_headIjEC1Ev, symObjAddr: 0x7E7C, symBinAddr: 0x4FC18, symSize: 0x2C }
  - { offsetInCU: 0x31BD, offset: 0x6010B, size: 0x8, addend: 0x0, symName: __ZN2bq8hash_mapIyNS_11string_baseIcEEE22value_node_buffer_headINS3_10value_nodeEEC1Ev, symObjAddr: 0x7EA8, symBinAddr: 0x4FC44, symSize: 0x2C }
  - { offsetInCU: 0x31E5, offset: 0x60133, size: 0x8, addend: 0x0, symName: __ZN2bq8hash_mapIyNS_11string_baseIcEEE14expand_bucketsEj, symObjAddr: 0x7ED4, symBinAddr: 0x4FC70, symSize: 0x494 }
  - { offsetInCU: 0x32EA, offset: 0x60238, size: 0x8, addend: 0x0, symName: __ZNK2bq8hash_mapIyNS_11string_baseIcEEE12buckets_sizeEv, symObjAddr: 0x8658, symBinAddr: 0x503F4, symSize: 0x24 }
  - { offsetInCU: 0x3310, offset: 0x6025E, size: 0x8, addend: 0x0, symName: __ZN2bq8hash_mapIyNS_11string_baseIcEEE22value_node_buffer_headIjEC2Ev, symObjAddr: 0x867C, symBinAddr: 0x50418, symSize: 0x1C }
  - { offsetInCU: 0x3338, offset: 0x60286, size: 0x8, addend: 0x0, symName: __ZN2bq8hash_mapIyNS_11string_baseIcEEE22value_node_buffer_headINS3_10value_nodeEEC2Ev, symObjAddr: 0x8698, symBinAddr: 0x50434, symSize: 0x1C }
  - { offsetInCU: 0x3360, offset: 0x602AE, size: 0x8, addend: 0x0, symName: __ZNK2bq8hash_mapIyNS_11string_baseIcEEE22value_node_buffer_headIjE4sizeEv, symObjAddr: 0x86B4, symBinAddr: 0x50450, symSize: 0x18 }
  - { offsetInCU: 0x3384, offset: 0x602D2, size: 0x8, addend: 0x0, symName: __ZN2bq8hash_mapIyNS_11string_baseIcEEE22value_node_buffer_headIjEixEj, symObjAddr: 0x86CC, symBinAddr: 0x50468, symSize: 0x74 }
  - { offsetInCU: 0x33B6, offset: 0x60304, size: 0x8, addend: 0x0, symName: __ZNK2bq8hash_mapIyNS_11string_baseIcEEE23get_bucket_index_by_keyERKy, symObjAddr: 0x87BC, symBinAddr: 0x504DC, symSize: 0x44 }
  - { offsetInCU: 0x33FB, offset: 0x60349, size: 0x8, addend: 0x0, symName: __ZNK2bq7kv_pairIyNS_11string_baseIcEEE3keyEv, symObjAddr: 0x8800, symBinAddr: 0x50520, symSize: 0x14 }
  - { offsetInCU: 0x341F, offset: 0x6036D, size: 0x8, addend: 0x0, symName: __ZNK2bq8hash_mapIyNS_11string_baseIcEEE4sizeEv, symObjAddr: 0x8814, symBinAddr: 0x50534, symSize: 0x18 }
  - { offsetInCU: 0x3445, offset: 0x60393, size: 0x8, addend: 0x0, symName: __ZNK2bq8hash_mapIyNS_11string_baseIcEEE24get_bucket_index_by_hashEy, symObjAddr: 0x8850, symBinAddr: 0x5054C, symSize: 0x3C }
  - { offsetInCU: 0x347B, offset: 0x603C9, size: 0x8, addend: 0x0, symName: __ZNK2bq8hash_mapIyNS_11string_baseIcEEE22value_node_buffer_headINS3_10value_nodeEE4sizeEv, symObjAddr: 0x88C8, symBinAddr: 0x50588, symSize: 0x18 }
  - { offsetInCU: 0x349F, offset: 0x603ED, size: 0x8, addend: 0x0, symName: __ZN2bq17hash_map_iteratorIyNS_11string_baseIcEELb0EEdeEv, symObjAddr: 0x89C8, symBinAddr: 0x505A0, symSize: 0x34 }
  - { offsetInCU: 0x34C5, offset: 0x60413, size: 0x8, addend: 0x0, symName: __ZNK2bq8hash_mapIyNS_11string_baseIcEEE32find_index_and_bucket_idx_by_keyERKy, symObjAddr: 0x8E1C, symBinAddr: 0x505D4, symSize: 0x120 }
  - { offsetInCU: 0x3553, offset: 0x604A1, size: 0x8, addend: 0x0, symName: __ZNK2bq8hash_mapIyNS_11string_baseIcEEE22value_node_buffer_headIjEixEj, symObjAddr: 0x8F68, symBinAddr: 0x506F4, symSize: 0x74 }
  - { offsetInCU: 0x3585, offset: 0x604D3, size: 0x8, addend: 0x0, symName: __ZN2bq8hash_mapIyNS_11string_baseIcEEE17alloc_node_by_keyERKy, symObjAddr: 0x9084, symBinAddr: 0x50768, symSize: 0x304 }
  - { offsetInCU: 0x367D, offset: 0x605CB, size: 0x8, addend: 0x0, symName: __ZN2bq8hash_mapIyNS_11string_baseIcEEE15construct_valueIS2_EEvRNS_17hash_map_iteratorIyS2_Lb0EEEOT_, symObjAddr: 0x9388, symBinAddr: 0x50A6C, symSize: 0x6C }
  - { offsetInCU: 0x36C9, offset: 0x60617, size: 0x8, addend: 0x0, symName: __ZNK2bq8hash_mapIyNS_11string_baseIcEEE10nodes_sizeEv, symObjAddr: 0x93F4, symBinAddr: 0x50AD8, symSize: 0x28 }
  - { offsetInCU: 0x36EF, offset: 0x6063D, size: 0x8, addend: 0x0, symName: __ZN2bq8hash_mapIyNS_11string_baseIcEEE13construct_keyIRKyEEvRNS_17hash_map_iteratorIyS2_Lb0EEEOT_, symObjAddr: 0x941C, symBinAddr: 0x50B00, symSize: 0x68 }
  - { offsetInCU: 0x5A, offset: 0x60744, size: 0x8, addend: 0x0, symName: __ZN2bqL14empty_snapshotE, symObjAddr: 0x3ECB8, symBinAddr: 0x698E0, symSize: 0x0 }
  - { offsetInCU: 0x372E, offset: 0x63E18, size: 0x8, addend: 0x0, symName: __ZN2bqeqIcEEbPKNS_11string_baseIT_E9char_typeERKS3_, symObjAddr: 0x136C, symBinAddr: 0x51E64, symSize: 0x30 }
  - { offsetInCU: 0x3774, offset: 0x63E5E, size: 0x8, addend: 0x0, symName: __ZN2bqneIKNS_11string_baseIcEES3_NS_5arrayIS2_Lm0EEES5_EEbRKNS_14array_iteratorIT_T1_EERKNS6_IT0_T2_EE, symObjAddr: 0x1DDC, symBinAddr: 0x52534, symSize: 0xA0 }
  - { offsetInCU: 0x3C64, offset: 0x6434E, size: 0x8, addend: 0x0, symName: __ZN2bq20_inner_backward_copyINS_11string_baseIcEEEENS_9enable_ifIXntaasr2bq31is_trivially_copy_constructibleIT_EE5valuesr2bq28is_trivially_copy_assignableIS4_EE5valueEvE4typeEPS4_PKS4_mm, symObjAddr: 0x8A4C, symBinAddr: 0x56198, symSize: 0xF8 }
  - { offsetInCU: 0x3CE5, offset: 0x643CF, size: 0x8, addend: 0x0, symName: __ZN2bqgeIyyNS_5arrayIyLm0EEES2_EEbRKNS_14array_iteratorIT_T1_EERKNS3_IT0_T2_EE, symObjAddr: 0x928C, symBinAddr: 0x566C0, symSize: 0xA0 }
  - { offsetInCU: 0x3D43, offset: 0x6442D, size: 0x8, addend: 0x0, symName: __ZN2bqleIyyNS_5arrayIyLm0EEES2_EEbRKNS_14array_iteratorIT_T1_EERKNS3_IT0_T2_EE, symObjAddr: 0x932C, symBinAddr: 0x56760, symSize: 0xA0 }
  - { offsetInCU: 0x3DA1, offset: 0x6448B, size: 0x8, addend: 0x0, symName: __ZN2bqmiIyyNS_5arrayIyLm0EEES2_EENS_14array_iteratorIT_T1_E9diff_typeERKS6_RKNS3_IT0_T2_EE, symObjAddr: 0x93CC, symBinAddr: 0x56800, symSize: 0xA0 }
  - { offsetInCU: 0x3DFF, offset: 0x644E9, size: 0x8, addend: 0x0, symName: __ZN2bq19_inner_forward_moveIyEENS_9enable_ifIXaasr2bq31is_trivially_copy_constructibleIT_EE5valuesr2bq31is_trivially_move_constructibleIS2_EE5valueEvE4typeEPS2_S5_m, symObjAddr: 0x96D4, symBinAddr: 0x56B08, symSize: 0x38 }
  - { offsetInCU: 0x3E54, offset: 0x6453E, size: 0x8, addend: 0x0, symName: __ZN2bq15_inner_mem_copyIyEENS_9enable_ifIXaasr2bq31is_trivially_copy_constructibleIT_EE5valuesr2bq31is_trivially_move_constructibleIS2_EE5valueEvE4typeEPS2_S5_m, symObjAddr: 0x97B4, symBinAddr: 0x56BE8, symSize: 0x40 }
  - { offsetInCU: 0x408C, offset: 0x64776, size: 0x8, addend: 0x0, symName: __ZN2bq7forwardIPNS_13appender_baseEEEOT_RNS_16remove_referenceIS3_E4typeE, symObjAddr: 0xA5E0, symBinAddr: 0x5793C, symSize: 0x14 }
  - { offsetInCU: 0x4C4F, offset: 0x65339, size: 0x8, addend: 0x0, symName: __ZN2bq7log_impC2Ev, symObjAddr: 0x0, symBinAddr: 0x50CC8, symSize: 0xE8 }
  - { offsetInCU: 0x4CED, offset: 0x653D7, size: 0x8, addend: 0x0, symName: __ZN2bq8platform9spin_lockC1Ev, symObjAddr: 0x114, symBinAddr: 0x50DB0, symSize: 0x2C }
  - { offsetInCU: 0x4D15, offset: 0x653FF, size: 0x8, addend: 0x0, symName: __ZN2bq7log_impC1Ev, symObjAddr: 0x16C, symBinAddr: 0x50DDC, symSize: 0x2C }
  - { offsetInCU: 0x4DED, offset: 0x654D7, size: 0x8, addend: 0x0, symName: __ZN2bq7log_impD2Ev, symObjAddr: 0x198, symBinAddr: 0x50E08, symSize: 0x120 }
  - { offsetInCU: 0x4FC8, offset: 0x656B2, size: 0x8, addend: 0x0, symName: __ZN2bq7log_imp5clearEv, symObjAddr: 0x2B8, symBinAddr: 0x50F28, symSize: 0x380 }
  - { offsetInCU: 0x51BF, offset: 0x658A9, size: 0x8, addend: 0x0, symName: __ZN2bq7log_impD1Ev, symObjAddr: 0x6BC, symBinAddr: 0x512A8, symSize: 0x2C }
  - { offsetInCU: 0x529A, offset: 0x65984, size: 0x8, addend: 0x0, symName: __ZN2bq7log_imp4initERKNS_11string_baseIcEERKNS_14property_valueERKNS_5arrayIS2_Lm0EEE, symObjAddr: 0x6E8, symBinAddr: 0x512D4, symSize: 0xB90 }
  - { offsetInCU: 0x5589, offset: 0x65C73, size: 0x8, addend: 0x0, symName: __ZNK2bq14property_valuecvjEv, symObjAddr: 0x15BC, symBinAddr: 0x51E94, symSize: 0x34 }
  - { offsetInCU: 0x55AD, offset: 0x65C97, size: 0x8, addend: 0x0, symName: __ZN2bq5arrayINS_11string_baseIcEELm0EEaSERKS3_, symObjAddr: 0x15F0, symBinAddr: 0x51EC8, symSize: 0x74 }
  - { offsetInCU: 0x55E2, offset: 0x65CCC, size: 0x8, addend: 0x0, symName: __ZN2bq5arrayINS_11string_baseIcEELm0EEC1ERKS3_, symObjAddr: 0x167C, symBinAddr: 0x51F3C, symSize: 0x34 }
  - { offsetInCU: 0x5648, offset: 0x65D32, size: 0x8, addend: 0x0, symName: __ZN2bq7log_imp12add_appenderERKNS_11string_baseIcEERKNS_14property_valueE, symObjAddr: 0x17E0, symBinAddr: 0x51F70, symSize: 0x3FC }
  - { offsetInCU: 0x57C3, offset: 0x65EAD, size: 0x8, addend: 0x0, symName: __ZN2bq7log_imp31refresh_merged_log_level_bitmapEv, symObjAddr: 0x1BFC, symBinAddr: 0x5236C, symSize: 0x124 }
  - { offsetInCU: 0x5886, offset: 0x65F70, size: 0x8, addend: 0x0, symName: __ZN2bq5arrayIyLm0EEC1Ev, symObjAddr: 0x1D38, symBinAddr: 0x52490, symSize: 0x2C }
  - { offsetInCU: 0x58B0, offset: 0x65F9A, size: 0x8, addend: 0x0, symName: __ZNK2bq5arrayINS_11string_baseIcEELm0EE5beginEv, symObjAddr: 0x1D64, symBinAddr: 0x524BC, symSize: 0x34 }
  - { offsetInCU: 0x58D7, offset: 0x65FC1, size: 0x8, addend: 0x0, symName: __ZNK2bq5arrayINS_11string_baseIcEELm0EE3endEv, symObjAddr: 0x1D98, symBinAddr: 0x524F0, symSize: 0x44 }
  - { offsetInCU: 0x58FE, offset: 0x65FE8, size: 0x8, addend: 0x0, symName: __ZNK2bq14array_iteratorIKNS_11string_baseIcEENS_5arrayIS2_Lm0EEEEdeEv, symObjAddr: 0x1E7C, symBinAddr: 0x525D4, symSize: 0x18 }
  - { offsetInCU: 0x5924, offset: 0x6600E, size: 0x8, addend: 0x0, symName: __ZN2bq5arrayIyLm0EE9push_backIJyEEEmDpOT_, symObjAddr: 0x1E94, symBinAddr: 0x525EC, symSize: 0x58 }
  - { offsetInCU: 0x5964, offset: 0x6604E, size: 0x8, addend: 0x0, symName: __ZN2bq14array_iteratorIKNS_11string_baseIcEENS_5arrayIS2_Lm0EEEEppEv, symObjAddr: 0x1F10, symBinAddr: 0x52644, symSize: 0x20 }
  - { offsetInCU: 0x598A, offset: 0x66074, size: 0x8, addend: 0x0, symName: __ZN2bq5arrayIyLm0EE5beginEv, symObjAddr: 0x1F30, symBinAddr: 0x52664, symSize: 0x34 }
  - { offsetInCU: 0x59B1, offset: 0x6609B, size: 0x8, addend: 0x0, symName: __ZNK2bq14array_iteratorIyNS_5arrayIyLm0EEEEcvPyEv, symObjAddr: 0x1F64, symBinAddr: 0x52698, symSize: 0x18 }
  - { offsetInCU: 0x59D7, offset: 0x660C1, size: 0x8, addend: 0x0, symName: __ZNK2bq5arrayIyLm0EE4sizeEv, symObjAddr: 0x1F7C, symBinAddr: 0x526B0, symSize: 0x18 }
  - { offsetInCU: 0x59FE, offset: 0x660E8, size: 0x8, addend: 0x0, symName: __ZN2bq5arrayIyLm0EED1Ev, symObjAddr: 0x1F94, symBinAddr: 0x526C8, symSize: 0x2C }
  - { offsetInCU: 0x5A28, offset: 0x66112, size: 0x8, addend: 0x0, symName: __ZN2bq7log_imp12reset_configERKNS_14property_valueE, symObjAddr: 0x200C, symBinAddr: 0x526F4, symSize: 0x798 }
  - { offsetInCU: 0x5D13, offset: 0x663FD, size: 0x8, addend: 0x0, symName: __ZN2bq8platform16scoped_spin_lockC1ERNS0_9spin_lockE, symObjAddr: 0x27A4, symBinAddr: 0x52E8C, symSize: 0x34 }
  - { offsetInCU: 0x5D49, offset: 0x66433, size: 0x8, addend: 0x0, symName: __ZN2bq7log_imp21flush_appenders_cacheEv, symObjAddr: 0x27D8, symBinAddr: 0x52EC0, symSize: 0x154 }
  - { offsetInCU: 0x5DF7, offset: 0x664E1, size: 0x8, addend: 0x0, symName: __ZN2bq7log_imp18flush_appenders_ioEv, symObjAddr: 0x292C, symBinAddr: 0x53014, symSize: 0x154 }
  - { offsetInCU: 0x5EA5, offset: 0x6658F, size: 0x8, addend: 0x0, symName: __ZN2bq8platform16scoped_spin_lockD1Ev, symObjAddr: 0x2A80, symBinAddr: 0x53168, symSize: 0x2C }
  - { offsetInCU: 0x5ECD, offset: 0x665B7, size: 0x8, addend: 0x0, symName: __ZN2bq7log_imp10set_configERKNS_11string_baseIcEE, symObjAddr: 0x2ACC, symBinAddr: 0x53194, symSize: 0x30 }
  - { offsetInCU: 0x5F06, offset: 0x665F0, size: 0x8, addend: 0x0, symName: __ZN2bq18appender_file_textC1Ev, symObjAddr: 0x2C60, symBinAddr: 0x531C4, symSize: 0x2C }
  - { offsetInCU: 0x5F3F, offset: 0x66629, size: 0x8, addend: 0x0, symName: __ZN2bq17appender_file_rawC1Ev, symObjAddr: 0x2C8C, symBinAddr: 0x531F0, symSize: 0x2C }
  - { offsetInCU: 0x5F7D, offset: 0x66667, size: 0x8, addend: 0x0, symName: __ZN2bq24appender_file_compressedC1Ev, symObjAddr: 0x2CB8, symBinAddr: 0x5321C, symSize: 0x2C }
  - { offsetInCU: 0x5FBB, offset: 0x666A5, size: 0x8, addend: 0x0, symName: __ZN2bq10scoped_objINS_13appender_baseEEC1EPS1_, symObjAddr: 0x2CE4, symBinAddr: 0x53248, symSize: 0x34 }
  - { offsetInCU: 0x5FF1, offset: 0x666DB, size: 0x8, addend: 0x0, symName: __ZN2bq10scoped_objINS_13appender_baseEEptEv, symObjAddr: 0x2D18, symBinAddr: 0x5327C, symSize: 0x18 }
  - { offsetInCU: 0x6015, offset: 0x666FF, size: 0x8, addend: 0x0, symName: __ZN2bq10scoped_objINS_13appender_baseEE8transferEv, symObjAddr: 0x2D30, symBinAddr: 0x53294, symSize: 0x24 }
  - { offsetInCU: 0x6047, offset: 0x66731, size: 0x8, addend: 0x0, symName: __ZN2bq10scoped_objINS_13appender_baseEED1Ev, symObjAddr: 0x2D54, symBinAddr: 0x532B8, symSize: 0x2C }
  - { offsetInCU: 0x6088, offset: 0x66772, size: 0x8, addend: 0x0, symName: __ZN2bq7log_imp17process_log_chunkERNS_16log_entry_handleE, symObjAddr: 0x2E64, symBinAddr: 0x532E4, symSize: 0x8C }
  - { offsetInCU: 0x6127, offset: 0x66811, size: 0x8, addend: 0x0, symName: __ZN2bq7log_imp3logERKNS_16log_entry_handleE, symObjAddr: 0x2EF0, symBinAddr: 0x53370, symSize: 0x1A0 }
  - { offsetInCU: 0x622F, offset: 0x66919, size: 0x8, addend: 0x0, symName: __ZN2bq7log_imp20take_snapshot_stringEb, symObjAddr: 0x3090, symBinAddr: 0x53510, symSize: 0x3C }
  - { offsetInCU: 0x6265, offset: 0x6694F, size: 0x8, addend: 0x0, symName: __ZN2bq7log_imp23release_snapshot_stringEv, symObjAddr: 0x30CC, symBinAddr: 0x5354C, symSize: 0x28 }
  - { offsetInCU: 0x628C, offset: 0x66976, size: 0x8, addend: 0x0, symName: __ZNK2bq7log_imp8get_nameEv, symObjAddr: 0x30F4, symBinAddr: 0x53574, symSize: 0x18 }
  - { offsetInCU: 0x62B3, offset: 0x6699D, size: 0x8, addend: 0x0, symName: __ZNK2bq13appender_base20get_log_level_bitmapEv, symObjAddr: 0x310C, symBinAddr: 0x5358C, symSize: 0x3C }
  - { offsetInCU: 0x62D7, offset: 0x669C1, size: 0x8, addend: 0x0, symName: __ZN2bq7log_imp7processEb, symObjAddr: 0x3148, symBinAddr: 0x535C8, symSize: 0x244 }
  - { offsetInCU: 0x6408, offset: 0x66AF2, size: 0x8, addend: 0x0, symName: __ZN2bq7log_imp12sync_processEv, symObjAddr: 0x33E0, symBinAddr: 0x5380C, symSize: 0x4C }
  - { offsetInCU: 0x643E, offset: 0x66B28, size: 0x8, addend: 0x0, symName: __ZNK2bq7log_imp10get_layoutEv, symObjAddr: 0x342C, symBinAddr: 0x53858, symSize: 0x18 }
  - { offsetInCU: 0x6465, offset: 0x66B4F, size: 0x8, addend: 0x0, symName: __ZNK2bq13appender_base8get_typeEv, symObjAddr: 0x3444, symBinAddr: 0x53870, symSize: 0x18 }
  - { offsetInCU: 0x6489, offset: 0x66B73, size: 0x8, addend: 0x0, symName: __ZNK2bq7log_imp20get_categories_countEv, symObjAddr: 0x345C, symBinAddr: 0x53888, symSize: 0x28 }
  - { offsetInCU: 0x64B0, offset: 0x66B9A, size: 0x8, addend: 0x0, symName: __ZNK2bq7log_imp26get_category_name_by_indexEj, symObjAddr: 0x3484, symBinAddr: 0x538B0, symSize: 0x34 }
  - { offsetInCU: 0x64E6, offset: 0x66BD0, size: 0x8, addend: 0x0, symName: __ZNK2bq7log_imp19get_categories_nameEv, symObjAddr: 0x3534, symBinAddr: 0x538E4, symSize: 0x18 }
  - { offsetInCU: 0x650D, offset: 0x66BF7, size: 0x8, addend: 0x0, symName: __ZN2bq7log_imp20set_appenders_enableERKNS_11string_baseIcEEb, symObjAddr: 0x354C, symBinAddr: 0x538FC, symSize: 0x4DC }
  - { offsetInCU: 0x681A, offset: 0x66F04, size: 0x8, addend: 0x0, symName: __ZNK2bq13appender_base8get_nameEv, symObjAddr: 0x3C68, symBinAddr: 0x53DD8, symSize: 0x18 }
  - { offsetInCU: 0x683E, offset: 0x66F28, size: 0x8, addend: 0x0, symName: __ZN2bq8platform9spin_lockC2Ev, symObjAddr: 0x4090, symBinAddr: 0x53DF0, symSize: 0x48 }
  - { offsetInCU: 0x686B, offset: 0x66F55, size: 0x8, addend: 0x0, symName: __ZN2bq19cache_friendly_typeINS_8platform6atomicIbEEEC1IbEEOT_, symObjAddr: 0x40D8, symBinAddr: 0x53E38, symSize: 0x34 }
  - { offsetInCU: 0x68AA, offset: 0x66F94, size: 0x8, addend: 0x0, symName: __ZN2bq19cache_friendly_typeINS_8platform6atomicIbEEEC2IbEEOT_, symObjAddr: 0x4140, symBinAddr: 0x53E6C, symSize: 0x44 }
  - { offsetInCU: 0x68E9, offset: 0x66FD3, size: 0x8, addend: 0x0, symName: __ZN2bq8platform6atomicIbEC1ERKb, symObjAddr: 0x4198, symBinAddr: 0x53EB0, symSize: 0x34 }
  - { offsetInCU: 0x691F, offset: 0x67009, size: 0x8, addend: 0x0, symName: __ZN2bq8platform6atomicIbEC2ERKb, symObjAddr: 0x41CC, symBinAddr: 0x53EE4, symSize: 0x34 }
  - { offsetInCU: 0x6955, offset: 0x6703F, size: 0x8, addend: 0x0, symName: __ZN2bq8platform12_atomic_baseIbLm1EEC2ERKb, symObjAddr: 0x4200, symBinAddr: 0x53F18, symSize: 0x28 }
  - { offsetInCU: 0x6990, offset: 0x6707A, size: 0x8, addend: 0x0, symName: __ZN2bq8platform16scoped_spin_lockC2ERNS0_9spin_lockE, symObjAddr: 0x4C50, symBinAddr: 0x53F40, symSize: 0x3C }
  - { offsetInCU: 0x6B12, offset: 0x671FC, size: 0x8, addend: 0x0, symName: __ZN2bq8platform9spin_lock4lockEv, symObjAddr: 0x4C8C, symBinAddr: 0x53F7C, symSize: 0x584 }
  - { offsetInCU: 0x6CE9, offset: 0x673D3, size: 0x8, addend: 0x0, symName: __ZN2bq19cache_friendly_typeINS_8platform6atomicIbEEE3getEv, symObjAddr: 0x5210, symBinAddr: 0x54500, symSize: 0x18 }
  - { offsetInCU: 0x6D0D, offset: 0x673F7, size: 0x8, addend: 0x0, symName: __ZN2bq8platform16scoped_spin_lockD2Ev, symObjAddr: 0x5228, symBinAddr: 0x54518, symSize: 0x30 }
  - { offsetInCU: 0x6D8E, offset: 0x67478, size: 0x8, addend: 0x0, symName: __ZN2bq8platform9spin_lock6unlockEv, symObjAddr: 0x5258, symBinAddr: 0x54548, symSize: 0x198 }
  - { offsetInCU: 0x6F1A, offset: 0x67604, size: 0x8, addend: 0x0, symName: __ZN2bq18appender_file_textC2Ev, symObjAddr: 0x53F0, symBinAddr: 0x546E0, symSize: 0x44 }
  - { offsetInCU: 0x6F44, offset: 0x6762E, size: 0x8, addend: 0x0, symName: __ZN2bq18appender_file_baseC2Ev, symObjAddr: 0x5434, symBinAddr: 0x54724, symSize: 0x84 }
  - { offsetInCU: 0x6F6E, offset: 0x67658, size: 0x8, addend: 0x0, symName: __ZN2bq17appender_file_rawC2Ev, symObjAddr: 0x55A0, symBinAddr: 0x547A8, symSize: 0x44 }
  - { offsetInCU: 0x6F98, offset: 0x67682, size: 0x8, addend: 0x0, symName: __ZN2bq20appender_file_binaryC2Ev, symObjAddr: 0x55E4, symBinAddr: 0x547EC, symSize: 0x44 }
  - { offsetInCU: 0x72F6, offset: 0x679E0, size: 0x8, addend: 0x0, symName: __ZN2bq24appender_file_compressedC2Ev, symObjAddr: 0x5628, symBinAddr: 0x54830, symSize: 0x15D0 }
  - { offsetInCU: 0x7C80, offset: 0x6836A, size: 0x8, addend: 0x0, symName: __ZN2bq15hash_map_inlineIyjE22value_node_buffer_headIjEC1Ev, symObjAddr: 0x6C24, symBinAddr: 0x55E00, symSize: 0x2C }
  - { offsetInCU: 0x7CA8, offset: 0x68392, size: 0x8, addend: 0x0, symName: __ZN2bq15hash_map_inlineIyjE22value_node_buffer_headINS1_10value_nodeEEC1Ev, symObjAddr: 0x6C50, symBinAddr: 0x55E2C, symSize: 0x2C }
  - { offsetInCU: 0x7CD0, offset: 0x683BA, size: 0x8, addend: 0x0, symName: __ZN2bq15hash_map_inlineIyjE22value_node_buffer_headIjEC2Ev, symObjAddr: 0x6C7C, symBinAddr: 0x55E58, symSize: 0x1C }
  - { offsetInCU: 0x7CF8, offset: 0x683E2, size: 0x8, addend: 0x0, symName: __ZN2bq15hash_map_inlineIyjE22value_node_buffer_headINS1_10value_nodeEEC2Ev, symObjAddr: 0x6C98, symBinAddr: 0x55E74, symSize: 0x1C }
  - { offsetInCU: 0x7D20, offset: 0x6840A, size: 0x8, addend: 0x0, symName: __ZN2bq5arrayINS_11string_baseIcEELm0EEC2ERKS3_, symObjAddr: 0x7FAC, symBinAddr: 0x55E90, symSize: 0x9C }
  - { offsetInCU: 0x7D58, offset: 0x68442, size: 0x8, addend: 0x0, symName: __ZN2bq5arrayINS_11string_baseIcEELm0EE12insert_batchENS_14array_iteratorIS2_S3_EENS4_IKS2_S3_EEm, symObjAddr: 0x8278, symBinAddr: 0x55F2C, symSize: 0x26C }
  - { offsetInCU: 0x7DD9, offset: 0x684C3, size: 0x8, addend: 0x0, symName: __ZNK2bq14array_iteratorIKNS_11string_baseIcEENS_5arrayIS2_Lm0EEEEcvPS3_Ev, symObjAddr: 0x8B44, symBinAddr: 0x56290, symSize: 0x18 }
  - { offsetInCU: 0x7E00, offset: 0x684EA, size: 0x8, addend: 0x0, symName: __ZN2bq5arrayIyLm0EEC2Ev, symObjAddr: 0x8DCC, symBinAddr: 0x562A8, symSize: 0x20 }
  - { offsetInCU: 0x7E29, offset: 0x68513, size: 0x8, addend: 0x0, symName: __ZN2bq5arrayIyLm0EED2Ev, symObjAddr: 0x8DEC, symBinAddr: 0x562C8, symSize: 0x2C }
  - { offsetInCU: 0x7E53, offset: 0x6853D, size: 0x8, addend: 0x0, symName: __ZN2bq5arrayIyLm0EE5resetIyEENS_9enable_ifIXsr2bq6is_podIT_EE5valueEvE4typeEv, symObjAddr: 0x8E18, symBinAddr: 0x562F4, symSize: 0x5C }
  - { offsetInCU: 0x7E83, offset: 0x6856D, size: 0x8, addend: 0x0, symName: __ZN2bq14array_iteratorIKNS_11string_baseIcEENS_5arrayIS2_Lm0EEEEC1IS2_EEPT_PKS5_, symObjAddr: 0x8E74, symBinAddr: 0x56350, symSize: 0x3C }
  - { offsetInCU: 0x7ED3, offset: 0x685BD, size: 0x8, addend: 0x0, symName: __ZN2bq14array_iteratorIKNS_11string_baseIcEENS_5arrayIS2_Lm0EEEEC2IS2_EEPT_PKS5_, symObjAddr: 0x8EB0, symBinAddr: 0x5638C, symSize: 0x70 }
  - { offsetInCU: 0x7F21, offset: 0x6860B, size: 0x8, addend: 0x0, symName: __ZN2bq5arrayIyLm0EE6insertIJyEEEvNS_14array_iteratorIyS1_EEDpOT_, symObjAddr: 0x8FB4, symBinAddr: 0x563FC, symSize: 0x288 }
  - { offsetInCU: 0x7FAF, offset: 0x68699, size: 0x8, addend: 0x0, symName: __ZN2bq5arrayIyLm0EE3endEv, symObjAddr: 0x923C, symBinAddr: 0x56684, symSize: 0x3C }
  - { offsetInCU: 0x7FD6, offset: 0x686C0, size: 0x8, addend: 0x0, symName: __ZN2bq5arrayIyLm0EE12set_capacityEmb, symObjAddr: 0x946C, symBinAddr: 0x568A0, symSize: 0x224 }
  - { offsetInCU: 0x8045, offset: 0x6872F, size: 0x8, addend: 0x0, symName: __ZN2bq14array_iteratorIyNS_5arrayIyLm0EEEEplEm, symObjAddr: 0x9690, symBinAddr: 0x56AC4, symSize: 0x44 }
  - { offsetInCU: 0x8087, offset: 0x68771, size: 0x8, addend: 0x0, symName: __ZN2bq5arrayIyLm0EE8destructENS_14array_iteratorIyS1_EE, symObjAddr: 0x970C, symBinAddr: 0x56B40, symSize: 0x34 }
  - { offsetInCU: 0x80BC, offset: 0x687A6, size: 0x8, addend: 0x0, symName: __ZN2bq5arrayIyLm0EE9constructIJyEEEvNS_14array_iteratorIyS1_EEDpOT_, symObjAddr: 0x9740, symBinAddr: 0x56B74, symSize: 0x74 }
  - { offsetInCU: 0x8119, offset: 0x68803, size: 0x8, addend: 0x0, symName: __ZN2bq14array_iteratorIyNS_5arrayIyLm0EEEEpLEi, symObjAddr: 0x97F4, symBinAddr: 0x56C28, symSize: 0x28 }
  - { offsetInCU: 0x814D, offset: 0x68837, size: 0x8, addend: 0x0, symName: __ZNK2bq14array_iteratorIyNS_5arrayIyLm0EEEEptEv, symObjAddr: 0x981C, symBinAddr: 0x56C50, symSize: 0x18 }
  - { offsetInCU: 0x8178, offset: 0x68862, size: 0x8, addend: 0x0, symName: __ZN2bq14array_iteratorIyNS_5arrayIyLm0EEEEC1IyEEPT_PKS2_, symObjAddr: 0x9834, symBinAddr: 0x56C68, symSize: 0x3C }
  - { offsetInCU: 0x81C8, offset: 0x688B2, size: 0x8, addend: 0x0, symName: __ZN2bq14array_iteratorIyNS_5arrayIyLm0EEEEC2IyEEPT_PKS2_, symObjAddr: 0x9870, symBinAddr: 0x56CA4, symSize: 0x70 }
  - { offsetInCU: 0x8216, offset: 0x68900, size: 0x8, addend: 0x0, symName: __ZN2bq23object_array_destructorIPNS_13appender_baseEE8destructEPS2_m, symObjAddr: 0x98E0, symBinAddr: 0x56D14, symSize: 0x2C }
  - { offsetInCU: 0x8246, offset: 0x68930, size: 0x8, addend: 0x0, symName: __ZN2bq23object_array_destructorIPNS_13appender_baseEE15destructor_implIS2_NS3_23trivial_destructor_typeEE8destructEPS2_m, symObjAddr: 0x990C, symBinAddr: 0x56D40, symSize: 0x14 }
  - { offsetInCU: 0x8276, offset: 0x68960, size: 0x8, addend: 0x0, symName: __ZN2bq10scoped_objINS_13appender_baseEEC2EPS1_, symObjAddr: 0x99F8, symBinAddr: 0x56D54, symSize: 0x20 }
  - { offsetInCU: 0x82AC, offset: 0x68996, size: 0x8, addend: 0x0, symName: __ZN2bq10scoped_objINS_13appender_baseEED2Ev, symObjAddr: 0x9A18, symBinAddr: 0x56D74, symSize: 0x78 }
  - { offsetInCU: 0x8406, offset: 0x68AF0, size: 0x8, addend: 0x0, symName: __ZN2bq12array_inlineIPNS_13appender_baseELm0EE6insertIJS2_EEEvNS_21array_iterator_inlineIS2_S3_EEDpOT_, symObjAddr: 0x9A90, symBinAddr: 0x56DEC, symSize: 0xB50 }
  - { offsetInCU: 0x8B5A, offset: 0x69244, size: 0x8, addend: 0x0, symName: __ZN2bq17object_destructorIPNS_13appender_baseEE8destructEPS2_, symObjAddr: 0xA5F4, symBinAddr: 0x57950, symSize: 0x24 }
  - { offsetInCU: 0x8B7C, offset: 0x69266, size: 0x8, addend: 0x0, symName: __ZN2bq17object_destructorIPNS_13appender_baseEE15destructor_implIS2_NS3_23trivial_destructor_typeEE8destructEPS2_, symObjAddr: 0xA618, symBinAddr: 0x57974, symSize: 0x10 }
  - { offsetInCU: 0x26, offset: 0x6932B, size: 0x8, addend: 0x0, symName: __ZN2bq16log_level_bitmapC2Ev, symObjAddr: 0x0, symBinAddr: 0x579D8, symSize: 0x18 }
  - { offsetInCU: 0x613, offset: 0x69918, size: 0x8, addend: 0x0, symName: __ZN2bq16log_level_bitmapC2Ev, symObjAddr: 0x0, symBinAddr: 0x579D8, symSize: 0x18 }
  - { offsetInCU: 0x63D, offset: 0x69942, size: 0x8, addend: 0x0, symName: __ZN2bq16log_level_bitmapC1Ev, symObjAddr: 0x18, symBinAddr: 0x579F0, symSize: 0x2C }
  - { offsetInCU: 0x667, offset: 0x6996C, size: 0x8, addend: 0x0, symName: __ZN2bq16log_level_bitmapC2ERKS0_, symObjAddr: 0x98, symBinAddr: 0x57A1C, symSize: 0x24 }
  - { offsetInCU: 0x69F, offset: 0x699A4, size: 0x8, addend: 0x0, symName: __ZN2bq16log_level_bitmapC1ERKS0_, symObjAddr: 0xBC, symBinAddr: 0x57A40, symSize: 0x34 }
  - { offsetInCU: 0x6D7, offset: 0x699DC, size: 0x8, addend: 0x0, symName: __ZN2bq16log_level_bitmapaSERKS0_, symObjAddr: 0xF0, symBinAddr: 0x57A74, symSize: 0x24 }
  - { offsetInCU: 0x70B, offset: 0x69A10, size: 0x8, addend: 0x0, symName: __ZN2bq16log_level_bitmap5clearEv, symObjAddr: 0x114, symBinAddr: 0x57A98, symSize: 0x18 }
  - { offsetInCU: 0x731, offset: 0x69A36, size: 0x8, addend: 0x0, symName: __ZN2bq16log_level_bitmap9add_levelENS_9log_levelE, symObjAddr: 0x12C, symBinAddr: 0x57AB0, symSize: 0x30 }
  - { offsetInCU: 0x765, offset: 0x69A6A, size: 0x8, addend: 0x0, symName: __ZN2bq16log_level_bitmap9add_levelERKNS_11string_baseIcEE, symObjAddr: 0x15C, symBinAddr: 0x57AE0, symSize: 0x2B4 }
  - { offsetInCU: 0x799, offset: 0x69A9E, size: 0x8, addend: 0x0, symName: __ZN2bq16log_level_bitmap10have_levelENS_9log_levelE, symObjAddr: 0x660, symBinAddr: 0x57D94, symSize: 0x34 }
  - { offsetInCU: 0x7CD, offset: 0x69AD2, size: 0x8, addend: 0x0, symName: __ZN2bq16log_level_bitmap14get_bitmap_ptrEv, symObjAddr: 0x694, symBinAddr: 0x57DC8, symSize: 0x14 }
  - { offsetInCU: 0x26, offset: 0x69B23, size: 0x8, addend: 0x0, symName: __ZN2bq11log_managerC2Ev, symObjAddr: 0x0, symBinAddr: 0x57DDC, symSize: 0x3C4 }
  - { offsetInCU: 0x3E, offset: 0x69B3B, size: 0x8, addend: 0x0, symName: __ZN2bq11log_manager18static_inst_cache_E, symObjAddr: 0x32048, symBinAddr: 0x69B50, symSize: 0x0 }
  - { offsetInCU: 0x2F25, offset: 0x6CA22, size: 0x8, addend: 0x0, symName: __ZN2bq7forwardIPNS_7log_impEEEOT_RNS_16remove_referenceIS3_E4typeE, symObjAddr: 0x68F4, symBinAddr: 0x5BA58, symSize: 0x14 }
  - { offsetInCU: 0x2F5A, offset: 0x6CA57, size: 0x8, addend: 0x0, symName: __ZN2bq4moveIRNS_10unique_ptrINS_7log_impEEEEEONS_16remove_referenceIT_E4typeEOS6_, symObjAddr: 0x6924, symBinAddr: 0x5BA6C, symSize: 0x14 }
  - { offsetInCU: 0x2F8F, offset: 0x6CA8C, size: 0x8, addend: 0x0, symName: __ZN2bq7forwardINS_10unique_ptrINS_7log_impEEEEEOT_RNS_16remove_referenceIS4_E4typeE, symObjAddr: 0x6998, symBinAddr: 0x5BAE0, symSize: 0x14 }
  - { offsetInCU: 0x341B, offset: 0x6CF18, size: 0x8, addend: 0x0, symName: __ZN2bq11log_manager22scoped_static_instanceEv, symObjAddr: 0x474, symBinAddr: 0x581F8, symSize: 0x94 }
  - { offsetInCU: 0x343C, offset: 0x6CF39, size: 0x8, addend: 0x0, symName: __ZZN2bq11log_manager22scoped_static_instanceEvE5inst_, symObjAddr: 0x32050, symBinAddr: 0x698F8, symSize: 0x0 }
  - { offsetInCU: 0x3AEF, offset: 0x6D5EC, size: 0x8, addend: 0x0, symName: __ZN2bq11log_managerC2Ev, symObjAddr: 0x0, symBinAddr: 0x57DDC, symSize: 0x3C4 }
  - { offsetInCU: 0x3DF2, offset: 0x6D8EF, size: 0x8, addend: 0x0, symName: __ZN2bq8platform6atomicINS_11log_manager5phaseEEC1Ev, symObjAddr: 0x3C4, symBinAddr: 0x581A0, symSize: 0x2C }
  - { offsetInCU: 0x3E1A, offset: 0x6D917, size: 0x8, addend: 0x0, symName: __ZN2bq11log_managerC1Ev, symObjAddr: 0x448, symBinAddr: 0x581CC, symSize: 0x2C }
  - { offsetInCU: 0x3E44, offset: 0x6D941, size: 0x8, addend: 0x0, symName: __ZN2bq11log_managerD1Ev, symObjAddr: 0x508, symBinAddr: 0x5828C, symSize: 0x2C }
  - { offsetInCU: 0x3E6E, offset: 0x6D96B, size: 0x8, addend: 0x0, symName: __ZN2bq11log_manager8instanceEv, symObjAddr: 0x534, symBinAddr: 0x582B8, symSize: 0x40 }
  - { offsetInCU: 0x3EDB, offset: 0x6D9D8, size: 0x8, addend: 0x0, symName: __ZN2bq11log_managerD2Ev, symObjAddr: 0x574, symBinAddr: 0x582F8, symSize: 0xC0 }
  - { offsetInCU: 0x40C7, offset: 0x6DBC4, size: 0x8, addend: 0x0, symName: __ZN2bq11log_manager6uninitEv, symObjAddr: 0x634, symBinAddr: 0x583B8, symSize: 0xA5C }
  - { offsetInCU: 0x47E6, offset: 0x6E2E3, size: 0x8, addend: 0x0, symName: __ZN2bq11log_manager10create_logENS_11string_baseIcEERKS2_RKNS_5arrayIS2_Lm0EEE, symObjAddr: 0x10BC, symBinAddr: 0x58E14, symSize: 0xEDC }
  - { offsetInCU: 0x4F95, offset: 0x6EA92, size: 0x8, addend: 0x0, symName: __ZNK2bq10unique_ptrINS_7log_impEEcvPvEv, symObjAddr: 0x209C, symBinAddr: 0x59CF0, symSize: 0x18 }
  - { offsetInCU: 0x4FB9, offset: 0x6EAB6, size: 0x8, addend: 0x0, symName: __ZN2bq10unique_ptrINS_7log_impEEptEv, symObjAddr: 0x20B4, symBinAddr: 0x59D08, symSize: 0x18 }
  - { offsetInCU: 0x4FDD, offset: 0x6EADA, size: 0x8, addend: 0x0, symName: __ZNK2bq11string_baseIcEneERKS1_, symObjAddr: 0x221C, symBinAddr: 0x59D20, symSize: 0x34 }
  - { offsetInCU: 0x5012, offset: 0x6EB0F, size: 0x8, addend: 0x0, symName: __ZN2bq10unique_ptrINS_7log_impEE3getEv, symObjAddr: 0x2250, symBinAddr: 0x59D54, symSize: 0x18 }
  - { offsetInCU: 0x504A, offset: 0x6EB47, size: 0x8, addend: 0x0, symName: __ZN2bq10scoped_objINS_7log_impEEC1EPS1_, symObjAddr: 0x2360, symBinAddr: 0x59D6C, symSize: 0x34 }
  - { offsetInCU: 0x5080, offset: 0x6EB7D, size: 0x8, addend: 0x0, symName: __ZN2bq10scoped_objINS_7log_impEEptEv, symObjAddr: 0x2394, symBinAddr: 0x59DA0, symSize: 0x18 }
  - { offsetInCU: 0x50A4, offset: 0x6EBA1, size: 0x8, addend: 0x0, symName: __ZN2bq10scoped_objINS_7log_impEE8transferEv, symObjAddr: 0x23AC, symBinAddr: 0x59DB8, symSize: 0x24 }
  - { offsetInCU: 0x50D6, offset: 0x6EBD3, size: 0x8, addend: 0x0, symName: __ZN2bq10scoped_objINS_7log_impEED1Ev, symObjAddr: 0x23D0, symBinAddr: 0x59DDC, symSize: 0x2C }
  - { offsetInCU: 0x50FE, offset: 0x6EBFB, size: 0x8, addend: 0x0, symName: __ZN2bq11log_manager12reset_configERKNS_11string_baseIcEES4_, symObjAddr: 0x2428, symBinAddr: 0x59E08, symSize: 0x560 }
  - { offsetInCU: 0x5396, offset: 0x6EE93, size: 0x8, addend: 0x0, symName: __ZN2bq11log_manager17process_by_workerEPNS_7log_impEb, symObjAddr: 0x2988, symBinAddr: 0x5A368, symSize: 0x278 }
  - { offsetInCU: 0x54D6, offset: 0x6EFD3, size: 0x8, addend: 0x0, symName: __ZN2bq11log_manager15force_flush_allEv, symObjAddr: 0x2C78, symBinAddr: 0x5A5E0, symSize: 0x2D0 }
  - { offsetInCU: 0x564E, offset: 0x6F14B, size: 0x8, addend: 0x0, symName: __ZN2bq11log_manager11force_flushEy, symObjAddr: 0x2F48, symBinAddr: 0x5A8B0, symSize: 0xFC }
  - { offsetInCU: 0x569E, offset: 0x6F19B, size: 0x8, addend: 0x0, symName: __ZN2bq11log_manager12awake_workerEv, symObjAddr: 0x309C, symBinAddr: 0x5A9AC, symSize: 0x28 }
  - { offsetInCU: 0x56C4, offset: 0x6F1C1, size: 0x8, addend: 0x0, symName: __ZN2bq11log_manager17get_public_layoutEv, symObjAddr: 0x30C4, symBinAddr: 0x5A9D4, symSize: 0x18 }
  - { offsetInCU: 0x56EB, offset: 0x6F1E8, size: 0x8, addend: 0x0, symName: __ZNK2bq11log_manager14get_logs_countEv, symObjAddr: 0x30DC, symBinAddr: 0x5A9EC, symSize: 0x28 }
  - { offsetInCU: 0x5730, offset: 0x6F22D, size: 0x8, addend: 0x0, symName: __ZN2bq11log_manager16get_log_by_indexEj, symObjAddr: 0x3104, symBinAddr: 0x5AA14, symSize: 0xF0 }
  - { offsetInCU: 0x57B9, offset: 0x6F2B6, size: 0x8, addend: 0x0, symName: __ZN2bq8platform6atomicINS_11log_manager5phaseEEC2Ev, symObjAddr: 0x595C, symBinAddr: 0x5AB04, symSize: 0x2C }
  - { offsetInCU: 0x57E1, offset: 0x6F2DE, size: 0x8, addend: 0x0, symName: __ZN2bq8platform12_atomic_baseINS_11log_manager5phaseELm4EEC2Ev, symObjAddr: 0x5988, symBinAddr: 0x5AB30, symSize: 0x18 }
  - { offsetInCU: 0x5809, offset: 0x6F306, size: 0x8, addend: 0x0, symName: __ZN2bq23object_array_destructorINS_10unique_ptrINS_7log_impEEEE8destructEPS3_m, symObjAddr: 0x59E4, symBinAddr: 0x5AB48, symSize: 0x2C }
  - { offsetInCU: 0x5839, offset: 0x6F336, size: 0x8, addend: 0x0, symName: __ZN2bq23object_array_destructorINS_10unique_ptrINS_7log_impEEEE15destructor_implIS3_NS4_27non_trivial_destructor_typeEE8destructEPS3_m, symObjAddr: 0x5A10, symBinAddr: 0x5AB74, symSize: 0x7C }
  - { offsetInCU: 0x5885, offset: 0x6F382, size: 0x8, addend: 0x0, symName: __ZN2bq17object_destructorINS_10unique_ptrINS_7log_impEEEE8destructEPS3_, symObjAddr: 0x5A8C, symBinAddr: 0x5ABF0, symSize: 0x24 }
  - { offsetInCU: 0x58A7, offset: 0x6F3A4, size: 0x8, addend: 0x0, symName: __ZN2bq17object_destructorINS_10unique_ptrINS_7log_impEEEE15destructor_implIS3_NS4_27non_trivial_destructor_typeEE8destructEPS3_, symObjAddr: 0x5AB0, symBinAddr: 0x5AC14, symSize: 0x3C }
  - { offsetInCU: 0x58C9, offset: 0x6F3C6, size: 0x8, addend: 0x0, symName: __ZN2bq10unique_ptrINS_7log_impEED1Ev, symObjAddr: 0x5AEC, symBinAddr: 0x5AC50, symSize: 0x2C }
  - { offsetInCU: 0x58F1, offset: 0x6F3EE, size: 0x8, addend: 0x0, symName: __ZN2bq10unique_ptrINS_7log_impEED2Ev, symObjAddr: 0x5B18, symBinAddr: 0x5AC7C, symSize: 0x2C }
  - { offsetInCU: 0x5919, offset: 0x6F416, size: 0x8, addend: 0x0, symName: __ZN2bq10unique_ptrINS_7log_impEE5resetEv, symObjAddr: 0x5B44, symBinAddr: 0x5ACA8, symSize: 0x74 }
  - { offsetInCU: 0x593D, offset: 0x6F43A, size: 0x8, addend: 0x0, symName: __ZN2bq10scoped_objINS_7log_impEEC2EPS1_, symObjAddr: 0x5BB8, symBinAddr: 0x5AD1C, symSize: 0x20 }
  - { offsetInCU: 0x5973, offset: 0x6F470, size: 0x8, addend: 0x0, symName: __ZN2bq10scoped_objINS_7log_impEED2Ev, symObjAddr: 0x5BD8, symBinAddr: 0x5AD3C, symSize: 0x78 }
  - { offsetInCU: 0x5ACD, offset: 0x6F5CA, size: 0x8, addend: 0x0, symName: __ZN2bq12array_inlineINS_10unique_ptrINS_7log_impEEELm0EE6insertIJPS2_EEEvNS_21array_iterator_inlineIS3_S4_EEDpOT_, symObjAddr: 0x5C50, symBinAddr: 0x5ADB4, symSize: 0xCA4 }
  - { offsetInCU: 0x6281, offset: 0x6FD7E, size: 0x8, addend: 0x0, symName: __ZN2bq10unique_ptrINS_7log_impEEC1IS1_EEONS0_IT_EE, symObjAddr: 0x6938, symBinAddr: 0x5BA80, symSize: 0x34 }
  - { offsetInCU: 0x62C0, offset: 0x6FDBD, size: 0x8, addend: 0x0, symName: __ZN2bq10unique_ptrINS_7log_impEEC2IS1_EEONS0_IT_EE, symObjAddr: 0x696C, symBinAddr: 0x5BAB4, symSize: 0x2C }
  - { offsetInCU: 0x62FF, offset: 0x6FDFC, size: 0x8, addend: 0x0, symName: __ZN2bq10unique_ptrINS_7log_impEEaSIS1_EERS2_ONS0_IT_EE, symObjAddr: 0x69AC, symBinAddr: 0x5BAF4, symSize: 0x6C }
  - { offsetInCU: 0x633B, offset: 0x6FE38, size: 0x8, addend: 0x0, symName: __ZN2bq10unique_ptrINS_7log_impEEC1EPS1_, symObjAddr: 0x6A18, symBinAddr: 0x5BB60, symSize: 0x34 }
  - { offsetInCU: 0x6371, offset: 0x6FE6E, size: 0x8, addend: 0x0, symName: __ZN2bq10unique_ptrINS_7log_impEEC2EPS1_, symObjAddr: 0x6A4C, symBinAddr: 0x5BB94, symSize: 0x20 }
  - { offsetInCU: 0x26, offset: 0x6FEF2, size: 0x8, addend: 0x0, symName: __ZN2bq12log_snapshotC2EPNS_7log_impERKNS_14property_valueE, symObjAddr: 0x0, symBinAddr: 0x5BBB4, symSize: 0xBC }
  - { offsetInCU: 0x2F03, offset: 0x72DCF, size: 0x8, addend: 0x0, symName: __ZN2bq12log_snapshotC2EPNS_7log_impERKNS_14property_valueE, symObjAddr: 0x0, symBinAddr: 0x5BBB4, symSize: 0xBC }
  - { offsetInCU: 0x3065, offset: 0x72F31, size: 0x8, addend: 0x0, symName: __ZN2bq12log_snapshot12reset_configERKNS_14property_valueE, symObjAddr: 0x11C, symBinAddr: 0x5BC70, symSize: 0x7F4 }
  - { offsetInCU: 0x3268, offset: 0x73134, size: 0x8, addend: 0x0, symName: __ZN2bq12log_snapshotC1EPNS_7log_impERKNS_14property_valueE, symObjAddr: 0x910, symBinAddr: 0x5C464, symSize: 0x3C }
  - { offsetInCU: 0x3305, offset: 0x731D1, size: 0x8, addend: 0x0, symName: __ZN2bq12log_snapshotD2Ev, symObjAddr: 0x94C, symBinAddr: 0x5C4A0, symSize: 0x13C }
  - { offsetInCU: 0x339A, offset: 0x73266, size: 0x8, addend: 0x0, symName: __ZN2bq12log_snapshotD1Ev, symObjAddr: 0xB40, symBinAddr: 0x5C5DC, symSize: 0x2C }
  - { offsetInCU: 0x3450, offset: 0x7331C, size: 0x8, addend: 0x0, symName: __ZN2bq12log_snapshot10write_dataERKNS_16log_entry_handleE, symObjAddr: 0xD48, symBinAddr: 0x5C608, symSize: 0x200 }
  - { offsetInCU: 0x35A8, offset: 0x73474, size: 0x8, addend: 0x0, symName: __ZN2bq12log_snapshot20take_snapshot_stringEb, symObjAddr: 0xF48, symBinAddr: 0x5C808, symSize: 0x3F8 }
  - { offsetInCU: 0x3687, offset: 0x73553, size: 0x8, addend: 0x0, symName: __ZN2bq14array_iteratorIKcNS_5arrayIcLm1EEEEC1IcS3_EERKNS0_IT_T0_EE, symObjAddr: 0x2068, symBinAddr: 0x5CC00, symSize: 0x34 }
  - { offsetInCU: 0x36D1, offset: 0x7359D, size: 0x8, addend: 0x0, symName: __ZN2bq12log_snapshot23release_snapshot_stringEv, symObjAddr: 0x209C, symBinAddr: 0x5CC34, symSize: 0x28 }
  - { offsetInCU: 0x36F7, offset: 0x735C3, size: 0x8, addend: 0x0, symName: __ZN2bq14array_iteratorIKcNS_5arrayIcLm1EEEEC2IcS3_EERKNS0_IT_T0_EE, symObjAddr: 0x4A24, symBinAddr: 0x5CC5C, symSize: 0x30 }
  - { offsetInCU: 0x26, offset: 0x73638, size: 0x8, addend: 0x0, symName: __ZN2bq11thread_info4initEv, symObjAddr: 0x0, symBinAddr: 0x5CC8C, symSize: 0x134 }
  - { offsetInCU: 0x61D, offset: 0x73C2F, size: 0x8, addend: 0x0, symName: __ZN2bq11thread_info4initEv, symObjAddr: 0x0, symBinAddr: 0x5CC8C, symSize: 0x134 }
  - { offsetInCU: 0x45, offset: 0x73CCA, size: 0x8, addend: 0x0, symName: __ZN2bqL19log_worker_name_seqE, symObjAddr: 0x21668, symBinAddr: 0x69B40, symSize: 0x0 }
  - { offsetInCU: 0x2FE4, offset: 0x76C69, size: 0x8, addend: 0x0, symName: __ZN2bq8platform6atomicIiEC1ERKi, symObjAddr: 0x0, symBinAddr: 0x5CDC0, symSize: 0x34 }
  - { offsetInCU: 0x301A, offset: 0x76C9F, size: 0x8, addend: 0x0, symName: __ZN2bq10log_workerC2Ev, symObjAddr: 0x34, symBinAddr: 0x5CDF4, symSize: 0x98 }
  - { offsetInCU: 0x3049, offset: 0x76CCE, size: 0x8, addend: 0x0, symName: __ZN2bq8platform11thread_attrC1Ev, symObjAddr: 0xCC, symBinAddr: 0x5CE8C, symSize: 0x2C }
  - { offsetInCU: 0x3073, offset: 0x76CF8, size: 0x8, addend: 0x0, symName: __ZN2bq10log_workerC1Ev, symObjAddr: 0x12C, symBinAddr: 0x5CEB8, symSize: 0x2C }
  - { offsetInCU: 0x309D, offset: 0x76D22, size: 0x8, addend: 0x0, symName: __ZN2bq10log_workerD2Ev, symObjAddr: 0x158, symBinAddr: 0x5CEE4, symSize: 0x54 }
  - { offsetInCU: 0x30C7, offset: 0x76D4C, size: 0x8, addend: 0x0, symName: __ZN2bq10log_workerD1Ev, symObjAddr: 0x1AC, symBinAddr: 0x5CF38, symSize: 0x2C }
  - { offsetInCU: 0x30F1, offset: 0x76D76, size: 0x8, addend: 0x0, symName: __ZN2bq10log_workerD0Ev, symObjAddr: 0x1D8, symBinAddr: 0x5CF64, symSize: 0x30 }
  - { offsetInCU: 0x31C1, offset: 0x76E46, size: 0x8, addend: 0x0, symName: __ZN2bq10log_worker4initENS_15log_thread_modeEPNS_7log_impE, symObjAddr: 0x208, symBinAddr: 0x5CF94, symSize: 0x404 }
  - { offsetInCU: 0x32CE, offset: 0x76F53, size: 0x8, addend: 0x0, symName: __ZN2bq10log_worker5awakeEv, symObjAddr: 0x66C, symBinAddr: 0x5D398, symSize: 0x28 }
  - { offsetInCU: 0x339F, offset: 0x77024, size: 0x8, addend: 0x0, symName: __ZN2bq10log_worker20awake_and_wait_beginEPNS_7log_impE, symObjAddr: 0x694, symBinAddr: 0x5D3C0, symSize: 0x214 }
  - { offsetInCU: 0x34D1, offset: 0x77156, size: 0x8, addend: 0x0, symName: __ZN2bq10log_worker19awake_and_wait_joinEv, symObjAddr: 0x8A8, symBinAddr: 0x5D5D4, symSize: 0x118 }
  - { offsetInCU: 0x3541, offset: 0x771C6, size: 0x8, addend: 0x0, symName: __ZN2bq10log_worker3runEv, symObjAddr: 0x9C0, symBinAddr: 0x5D6EC, symSize: 0x31C }
  - { offsetInCU: 0x3693, offset: 0x77318, size: 0x8, addend: 0x0, symName: __ZN2bq8platform11thread_attrC2Ev, symObjAddr: 0xD4C, symBinAddr: 0x5DA08, symSize: 0x1C }
  - { offsetInCU: 0x36BD, offset: 0x77342, size: 0x8, addend: 0x0, symName: __ZN2bq8platform6atomicIiEC2ERKi, symObjAddr: 0x1A30, symBinAddr: 0x5DA24, symSize: 0x34 }
  - { offsetInCU: 0x36F3, offset: 0x77378, size: 0x8, addend: 0x0, symName: __ZN2bq8platform12_atomic_baseIiLm4EEC2ERKi, symObjAddr: 0x1A64, symBinAddr: 0x5DA58, symSize: 0x24 }
  - { offsetInCU: 0x26, offset: 0x773EA, size: 0x8, addend: 0x0, symName: __ZN2bq11ring_bufferC2Ejy, symObjAddr: 0x0, symBinAddr: 0x5DABC, symSize: 0x488 }
  - { offsetInCU: 0xD77, offset: 0x7813B, size: 0x8, addend: 0x0, symName: __ZN2bq11ring_bufferC2Ejy, symObjAddr: 0x0, symBinAddr: 0x5DABC, symSize: 0x488 }
  - { offsetInCU: 0x1070, offset: 0x78434, size: 0x8, addend: 0x0, symName: __ZN2bq11ring_buffer11cursor_typeC1Ev, symObjAddr: 0x488, symBinAddr: 0x5DF44, symSize: 0x2C }
  - { offsetInCU: 0x109D, offset: 0x78461, size: 0x8, addend: 0x0, symName: __ZN2bq8platform6atomicIjEC1Ev, symObjAddr: 0x50C, symBinAddr: 0x5DF70, symSize: 0x2C }
  - { offsetInCU: 0x10C5, offset: 0x78489, size: 0x8, addend: 0x0, symName: __ZN2bq8platform6atomicIyEC1Ev, symObjAddr: 0x538, symBinAddr: 0x5DF9C, symSize: 0x2C }
  - { offsetInCU: 0x10ED, offset: 0x784B1, size: 0x8, addend: 0x0, symName: __ZN2bq11ring_buffer17create_memory_mapEjy, symObjAddr: 0x564, symBinAddr: 0x5DFC8, symSize: 0x378 }
  - { offsetInCU: 0x125D, offset: 0x78621, size: 0x8, addend: 0x0, symName: __ZN2bq11ring_buffer16init_with_memoryEj, symObjAddr: 0x8DC, symBinAddr: 0x5E340, symSize: 0x370 }
  - { offsetInCU: 0x1589, offset: 0x7894D, size: 0x8, addend: 0x0, symName: __ZN2bq11ring_buffer33try_recover_from_exist_memory_mapEv, symObjAddr: 0xC4C, symBinAddr: 0x5E6B0, symSize: 0x5A4 }
  - { offsetInCU: 0x1897, offset: 0x78C5B, size: 0x8, addend: 0x0, symName: __ZN2bq11ring_buffer20init_with_memory_mapEv, symObjAddr: 0x11F0, symBinAddr: 0x5EC54, symSize: 0x2AC }
  - { offsetInCU: 0x1B0E, offset: 0x78ED2, size: 0x8, addend: 0x0, symName: __ZN2bq11ring_bufferC1Ejy, symObjAddr: 0x149C, symBinAddr: 0x5EF00, symSize: 0x3C }
  - { offsetInCU: 0x1B54, offset: 0x78F18, size: 0x8, addend: 0x0, symName: __ZN2bq11ring_bufferD2Ev, symObjAddr: 0x14D8, symBinAddr: 0x5EF3C, symSize: 0x64 }
  - { offsetInCU: 0x1B7E, offset: 0x78F42, size: 0x8, addend: 0x0, symName: __ZN2bq11ring_buffer17uninit_memory_mapEv, symObjAddr: 0x153C, symBinAddr: 0x5EFA0, symSize: 0x70 }
  - { offsetInCU: 0x1BA5, offset: 0x78F69, size: 0x8, addend: 0x0, symName: __ZN2bq11ring_bufferD1Ev, symObjAddr: 0x15D8, symBinAddr: 0x5F010, symSize: 0x2C }
  - { offsetInCU: 0x1CFF, offset: 0x790C3, size: 0x8, addend: 0x0, symName: __ZN2bq11ring_buffer17alloc_write_chunkEj, symObjAddr: 0x1604, symBinAddr: 0x5F03C, symSize: 0x1710 }
  - { offsetInCU: 0x2521, offset: 0x798E5, size: 0x8, addend: 0x0, symName: __ZN2bq11ring_buffer18commit_write_chunkERKNS_24ring_buffer_write_handleE, symObjAddr: 0x2D40, symBinAddr: 0x6074C, symSize: 0x368 }
  - { offsetInCU: 0x26A7, offset: 0x79A6B, size: 0x8, addend: 0x0, symName: __ZN2bq11ring_buffer10begin_readEv, symObjAddr: 0x30A8, symBinAddr: 0x60AB4, symSize: 0x138 }
  - { offsetInCU: 0x26E9, offset: 0x79AAD, size: 0x8, addend: 0x0, symName: __ZN2bq11ring_buffer4readEv, symObjAddr: 0x31E0, symBinAddr: 0x60BEC, symSize: 0x7B8 }
  - { offsetInCU: 0x28B5, offset: 0x79C79, size: 0x8, addend: 0x0, symName: __ZN2bq23ring_buffer_read_handleC1Ev, symObjAddr: 0x3998, symBinAddr: 0x613A4, symSize: 0x2C }
  - { offsetInCU: 0x28DF, offset: 0x79CA3, size: 0x8, addend: 0x0, symName: __ZN2bq11ring_buffer8end_readEv, symObjAddr: 0x39C4, symBinAddr: 0x613D0, symSize: 0x740 }
  - { offsetInCU: 0x2A88, offset: 0x79E4C, size: 0x8, addend: 0x0, symName: __ZN2bq17memory_map_handleaSEOS0_, symObjAddr: 0x42B4, symBinAddr: 0x61B10, symSize: 0x4C }
  - { offsetInCU: 0x2AB7, offset: 0x79E7B, size: 0x8, addend: 0x0, symName: __ZNK2bq17memory_map_handle15get_mapped_dataEv, symObjAddr: 0x4324, symBinAddr: 0x61B5C, symSize: 0x18 }
  - { offsetInCU: 0x2ADB, offset: 0x79E9F, size: 0x8, addend: 0x0, symName: __ZN2bq11ring_buffer11cursor_typeC2Ev, symObjAddr: 0x433C, symBinAddr: 0x61B74, symSize: 0xCC }
  - { offsetInCU: 0x2BB8, offset: 0x79F7C, size: 0x8, addend: 0x0, symName: __ZN2bq23ring_buffer_read_handleC2Ev, symObjAddr: 0x462C, symBinAddr: 0x61C40, symSize: 0x2C }
  - { offsetInCU: 0x2BE2, offset: 0x79FA6, size: 0x8, addend: 0x0, symName: __ZN2bq8platform6atomicIjEC2Ev, symObjAddr: 0x4790, symBinAddr: 0x61C6C, symSize: 0x2C }
  - { offsetInCU: 0x2C0A, offset: 0x79FCE, size: 0x8, addend: 0x0, symName: __ZN2bq8platform12_atomic_baseIjLm4EEC2Ev, symObjAddr: 0x47BC, symBinAddr: 0x61C98, symSize: 0x18 }
  - { offsetInCU: 0x2C32, offset: 0x79FF6, size: 0x8, addend: 0x0, symName: __ZN2bq8platform6atomicIyEC2Ev, symObjAddr: 0x47D4, symBinAddr: 0x61CB0, symSize: 0x2C }
  - { offsetInCU: 0x2C5A, offset: 0x7A01E, size: 0x8, addend: 0x0, symName: __ZN2bq8platform12_atomic_baseIyLm8EEC2Ev, symObjAddr: 0x4800, symBinAddr: 0x61CDC, symSize: 0x18 }
  - { offsetInCU: 0x26, offset: 0x7A080, size: 0x8, addend: 0x0, symName: __ZN2bq9log_utils29get_categories_mask_by_configENS_5arrayINS_11string_baseIcEELm0EEERKNS_14property_valueERNS_12array_inlineIhLm0EEE, symObjAddr: 0x0, symBinAddr: 0x61CF4, symSize: 0x37C }
  - { offsetInCU: 0x135E, offset: 0x7B3B8, size: 0x8, addend: 0x0, symName: __ZN2bq9log_utils29get_categories_mask_by_configENS_5arrayINS_11string_baseIcEELm0EEERKNS_14property_valueERNS_12array_inlineIhLm0EEE, symObjAddr: 0x0, symBinAddr: 0x61CF4, symSize: 0x37C }
  - { offsetInCU: 0x14C0, offset: 0x7B51A, size: 0x8, addend: 0x0, symName: __ZNK2bq5arrayINS_11string_baseIcEELm0EE8is_emptyEv, symObjAddr: 0x764, symBinAddr: 0x62070, symSize: 0x24 }
  - { offsetInCU: 0x14E7, offset: 0x7B541, size: 0x8, addend: 0x0, symName: __ZN2bq9log_utils30get_log_level_bitmap_by_configERKNS_14property_valueERNS_16log_level_bitmapE, symObjAddr: 0xBC0, symBinAddr: 0x62094, symSize: 0x154 }
...
